
SSSconflictFree.o:     file format elf64-x86-64

SYMBOL TABLE:
0000000000000000 l    df *ABS*	0000000000000000 SSSconflictFree.cpp
0000000000000000 l    d  .text	0000000000000000 .text
0000000000000000 l    d  .data	0000000000000000 .data
0000000000000000 l    d  .bss	0000000000000000 .bss
0000000000000000 l    d  .text._ZnwmPv	0000000000000000 .text._ZnwmPv
0000000000000000 l    d  .text._ZdlPvS_	0000000000000000 .text._ZdlPvS_
0000000000000000 l    d  .text._ZNSt11char_traitsIcE6assignERcRKc	0000000000000000 .text._ZNSt11char_traitsIcE6assignERcRKc
0000000000000000 l    d  .text._ZNSt11char_traitsIcE6lengthEPKc	0000000000000000 .text._ZNSt11char_traitsIcE6lengthEPKc
0000000000000000 l    d  .text._ZNSt11char_traitsIcE4copyEPcPKcm	0000000000000000 .text._ZNSt11char_traitsIcE4copyEPcPKcm
0000000000000000 l    d  .data.rel.ro	0000000000000000 .data.rel.ro
0000000000000000 l     O .data.rel.ro	0000000000000008 _ZZL18__gthread_active_pvE20__gthread_active_ptr
0000000000000000 l     F .text	000000000000001f _ZL18__gthread_active_pv
000000000000001f l     F .text	000000000000001a _ZN9__gnu_cxxL18__exchange_and_addEPVii
0000000000000039 l     F .text	0000000000000018 _ZN9__gnu_cxxL12__atomic_addEPVii
0000000000000051 l     F .text	000000000000002a _ZN9__gnu_cxxL25__exchange_and_add_singleEPii
000000000000007b l     F .text	000000000000001f _ZN9__gnu_cxxL19__atomic_add_singleEPii
000000000000009a l     F .text	0000000000000043 _ZN9__gnu_cxxL27__exchange_and_add_dispatchEPii
00000000000000dd l     F .text	0000000000000044 _ZN9__gnu_cxxL21__atomic_add_dispatchEPii
0000000000000238 l     O .bss	0000000000000001 _ZStL8__ioinit
0000000000000000 l    d  .text._ZSt7forwardIiEOT_RNSt16remove_referenceIS0_E4typeE	0000000000000000 .text._ZSt7forwardIiEOT_RNSt16remove_referenceIS0_E4typeE
0000000000000000 l    d  .text._ZNSt12experimental10filesystem2v17__cxx114pathD2Ev	0000000000000000 .text._ZNSt12experimental10filesystem2v17__cxx114pathD2Ev
0000000000000000 l    d  .text._ZNSt12experimental10filesystem2v17__cxx114pathC2Ev	0000000000000000 .text._ZNSt12experimental10filesystem2v17__cxx114pathC2Ev
0000000000000000 l    d  .text._ZSt4moveIRNSt7__cxx1112basic_stringIcSt11char_traitsIcESaIcEEEEONSt16remove_referenceIT_E4typeEOS8_	0000000000000000 .text._ZSt4moveIRNSt7__cxx1112basic_stringIcSt11char_traitsIcESaIcEEEEONSt16remove_referenceIT_E4typeEOS8_
0000000000000000 l    d  .text._ZNSt12experimental10filesystem2v17__cxx114pathC2EONSt7__cxx1112basic_stringIcSt11char_traitsIcESaIcEEE	0000000000000000 .text._ZNSt12experimental10filesystem2v17__cxx114pathC2EONSt7__cxx1112basic_stringIcSt11char_traitsIcESaIcEEE
0000000000000000 l    d  .gcc_except_table._ZNSt12experimental10filesystem2v17__cxx114pathC2EONSt7__cxx1112basic_stringIcSt11char_traitsIcESaIcEEE	0000000000000000 .gcc_except_table._ZNSt12experimental10filesystem2v17__cxx114pathC2EONSt7__cxx1112basic_stringIcSt11char_traitsIcESaIcEEE
0000000000000000 l    d  .text._ZNKSt12experimental10filesystem2v17__cxx114pathcvNSt7__cxx1112basic_stringIcSt11char_traitsIcESaIcEEEEv	0000000000000000 .text._ZNKSt12experimental10filesystem2v17__cxx114pathcvNSt7__cxx1112basic_stringIcSt11char_traitsIcESaIcEEEEv
0000000000000000 l    d  .text._ZNSt12experimental10filesystem2v17__cxx114path10_S_convertEPKcNS3_17__null_terminatedE	0000000000000000 .text._ZNSt12experimental10filesystem2v17__cxx114path10_S_convertEPKcNS3_17__null_terminatedE
0000000000000000 l    d  .gcc_except_table._ZNSt12experimental10filesystem2v17__cxx114path10_S_convertEPKcNS3_17__null_terminatedE	0000000000000000 .gcc_except_table._ZNSt12experimental10filesystem2v17__cxx114path10_S_convertEPKcNS3_17__null_terminatedE
0000000000000000 l    d  .text._ZNSt12experimental10filesystem2v17__cxx11eqERKNS2_4pathES5_	0000000000000000 .text._ZNSt12experimental10filesystem2v17__cxx11eqERKNS2_4pathES5_
0000000000000000 l    d  .text._ZNKSt12experimental10filesystem2v17__cxx114path4stemEv	0000000000000000 .text._ZNKSt12experimental10filesystem2v17__cxx114path4stemEv
0000000000000000 l    d  .gcc_except_table._ZNKSt12experimental10filesystem2v17__cxx114path4stemEv	0000000000000000 .gcc_except_table._ZNKSt12experimental10filesystem2v17__cxx114path4stemEv
0000000000000000 l    d  .rodata	0000000000000000 .rodata
0000000000000000 l     O .rodata	0000000000000004 _ZN9__gnu_cxxL21__default_lock_policyE
0000000000000000 l    d  .text._ZNKSt12experimental10filesystem2v17__cxx1115directory_entry4pathEv	0000000000000000 .text._ZNKSt12experimental10filesystem2v17__cxx1115directory_entry4pathEv
0000000000000000 l    d  .text._ZNSt12__shared_ptrINSt12experimental10filesystem2v17__cxx114_DirELN9__gnu_cxx12_Lock_policyE2EED2Ev	0000000000000000 .text._ZNSt12__shared_ptrINSt12experimental10filesystem2v17__cxx114_DirELN9__gnu_cxx12_Lock_policyE2EED2Ev
0000000000000000 l    d  .text._ZNSt10shared_ptrINSt12experimental10filesystem2v17__cxx114_DirEED2Ev	0000000000000000 .text._ZNSt10shared_ptrINSt12experimental10filesystem2v17__cxx114_DirEED2Ev
0000000000000000 l    d  .text._ZNSt12experimental10filesystem2v17__cxx1118directory_iteratorD2Ev	0000000000000000 .text._ZNSt12experimental10filesystem2v17__cxx1118directory_iteratorD2Ev
0000000000000000 l    d  .text._ZNSt12experimental10filesystem2v17__cxx1118directory_iteratorC2ERKNS2_4pathE	0000000000000000 .text._ZNSt12experimental10filesystem2v17__cxx1118directory_iteratorC2ERKNS2_4pathE
0000000000000000 l    d  .text._ZNSt12experimental10filesystem2v17__cxx1118directory_iteratorC2EOS3_	0000000000000000 .text._ZNSt12experimental10filesystem2v17__cxx1118directory_iteratorC2EOS3_
0000000000000000 l    d  .text._ZNSt12experimental10filesystem2v17__cxx115beginENS2_18directory_iteratorE	0000000000000000 .text._ZNSt12experimental10filesystem2v17__cxx115beginENS2_18directory_iteratorE
0000000000000000 l    d  .text._ZNSt10shared_ptrINSt12experimental10filesystem2v17__cxx114_DirEEC1Ev	0000000000000000 .text._ZNSt10shared_ptrINSt12experimental10filesystem2v17__cxx114_DirEEC1Ev
0000000000000000 l    d  .text._ZNSt12experimental10filesystem2v17__cxx1118directory_iteratorC2Ev	0000000000000000 .text._ZNSt12experimental10filesystem2v17__cxx1118directory_iteratorC2Ev
0000000000000000 l    d  .text._ZNSt12experimental10filesystem2v17__cxx113endENS2_18directory_iteratorE	0000000000000000 .text._ZNSt12experimental10filesystem2v17__cxx113endENS2_18directory_iteratorE
0000000000000000 l    d  .text._ZNSt12experimental10filesystem2v17__cxx11eqERKNS2_18directory_iteratorES5_	0000000000000000 .text._ZNSt12experimental10filesystem2v17__cxx11eqERKNS2_18directory_iteratorES5_
0000000000000000 l    d  .text._ZNSt12experimental10filesystem2v17__cxx11neERKNS2_18directory_iteratorES5_	0000000000000000 .text._ZNSt12experimental10filesystem2v17__cxx11neERKNS2_18directory_iteratorES5_
0000000000000004 l     O .rodata	0000000000000004 _ZL19ompi_stdio_seek_set
0000000000000008 l     O .rodata	0000000000000004 _ZL19ompi_stdio_seek_cur
000000000000000c l     O .rodata	0000000000000004 _ZL19ompi_stdio_seek_end
0000000000000010 l     O .rodata	0000000000000004 _ZL8SEEK_SET
0000000000000014 l     O .rodata	0000000000000004 _ZL8SEEK_CUR
0000000000000018 l     O .rodata	0000000000000004 _ZL8SEEK_END
000000000000001c l     O .rodata	0000000000000004 _ZN3MPIL7SUCCESSE
0000000000000020 l     O .rodata	0000000000000004 _ZN3MPIL10ERR_BUFFERE
0000000000000024 l     O .rodata	0000000000000004 _ZN3MPIL9ERR_COUNTE
0000000000000028 l     O .rodata	0000000000000004 _ZN3MPIL8ERR_TYPEE
000000000000002c l     O .rodata	0000000000000004 _ZN3MPIL7ERR_TAGE
0000000000000030 l     O .rodata	0000000000000004 _ZN3MPIL8ERR_COMME
0000000000000034 l     O .rodata	0000000000000004 _ZN3MPIL8ERR_RANKE
0000000000000038 l     O .rodata	0000000000000004 _ZN3MPIL11ERR_REQUESTE
000000000000003c l     O .rodata	0000000000000004 _ZN3MPIL8ERR_ROOTE
0000000000000040 l     O .rodata	0000000000000004 _ZN3MPIL9ERR_GROUPE
0000000000000044 l     O .rodata	0000000000000004 _ZN3MPIL6ERR_OPE
0000000000000048 l     O .rodata	0000000000000004 _ZN3MPIL12ERR_TOPOLOGYE
000000000000004c l     O .rodata	0000000000000004 _ZN3MPIL8ERR_DIMSE
0000000000000050 l     O .rodata	0000000000000004 _ZN3MPIL7ERR_ARGE
0000000000000054 l     O .rodata	0000000000000004 _ZN3MPIL11ERR_UNKNOWNE
0000000000000058 l     O .rodata	0000000000000004 _ZN3MPIL12ERR_TRUNCATEE
000000000000005c l     O .rodata	0000000000000004 _ZN3MPIL9ERR_OTHERE
0000000000000060 l     O .rodata	0000000000000004 _ZN3MPIL10ERR_INTERNE
0000000000000064 l     O .rodata	0000000000000004 _ZN3MPIL11ERR_PENDINGE
0000000000000068 l     O .rodata	0000000000000004 _ZN3MPIL13ERR_IN_STATUSE
000000000000006c l     O .rodata	0000000000000004 _ZN3MPIL10ERR_ACCESSE
0000000000000070 l     O .rodata	0000000000000004 _ZN3MPIL9ERR_AMODEE
0000000000000074 l     O .rodata	0000000000000004 _ZN3MPIL10ERR_ASSERTE
0000000000000078 l     O .rodata	0000000000000004 _ZN3MPIL12ERR_BAD_FILEE
000000000000007c l     O .rodata	0000000000000004 _ZN3MPIL8ERR_BASEE
0000000000000080 l     O .rodata	0000000000000004 _ZN3MPIL14ERR_CONVERSIONE
0000000000000084 l     O .rodata	0000000000000004 _ZN3MPIL8ERR_DISPE
0000000000000088 l     O .rodata	0000000000000004 _ZN3MPIL15ERR_DUP_DATAREPE
000000000000008c l     O .rodata	0000000000000004 _ZN3MPIL15ERR_FILE_EXISTSE
0000000000000090 l     O .rodata	0000000000000004 _ZN3MPIL15ERR_FILE_IN_USEE
0000000000000094 l     O .rodata	0000000000000004 _ZN3MPIL8ERR_FILEE
0000000000000098 l     O .rodata	0000000000000004 _ZN3MPIL12ERR_INFO_KEYE
000000000000009c l     O .rodata	0000000000000004 _ZN3MPIL14ERR_INFO_NOKEYE
00000000000000a0 l     O .rodata	0000000000000004 _ZN3MPIL14ERR_INFO_VALUEE
00000000000000a4 l     O .rodata	0000000000000004 _ZN3MPIL8ERR_INFOE
00000000000000a8 l     O .rodata	0000000000000004 _ZN3MPIL6ERR_IOE
00000000000000ac l     O .rodata	0000000000000004 _ZN3MPIL10ERR_KEYVALE
00000000000000b0 l     O .rodata	0000000000000004 _ZN3MPIL12ERR_LOCKTYPEE
00000000000000b4 l     O .rodata	0000000000000004 _ZN3MPIL8ERR_NAMEE
00000000000000b8 l     O .rodata	0000000000000004 _ZN3MPIL10ERR_NO_MEME
00000000000000bc l     O .rodata	0000000000000004 _ZN3MPIL12ERR_NOT_SAMEE
00000000000000c0 l     O .rodata	0000000000000004 _ZN3MPIL12ERR_NO_SPACEE
00000000000000c4 l     O .rodata	0000000000000004 _ZN3MPIL16ERR_NO_SUCH_FILEE
00000000000000c8 l     O .rodata	0000000000000004 _ZN3MPIL8ERR_PORTE
00000000000000cc l     O .rodata	0000000000000004 _ZN3MPIL9ERR_QUOTAE
00000000000000d0 l     O .rodata	0000000000000004 _ZN3MPIL13ERR_READ_ONLYE
00000000000000d4 l     O .rodata	0000000000000004 _ZN3MPIL16ERR_RMA_CONFLICTE
00000000000000d8 l     O .rodata	0000000000000004 _ZN3MPIL12ERR_RMA_SYNCE
00000000000000dc l     O .rodata	0000000000000004 _ZN3MPIL11ERR_SERVICEE
00000000000000e0 l     O .rodata	0000000000000004 _ZN3MPIL8ERR_SIZEE
00000000000000e4 l     O .rodata	0000000000000004 _ZN3MPIL9ERR_SPAWNE
00000000000000e8 l     O .rodata	0000000000000004 _ZN3MPIL23ERR_UNSUPPORTED_DATAREPE
00000000000000ec l     O .rodata	0000000000000004 _ZN3MPIL25ERR_UNSUPPORTED_OPERATIONE
00000000000000f0 l     O .rodata	0000000000000004 _ZN3MPIL7ERR_WINE
00000000000000f4 l     O .rodata	0000000000000004 _ZN3MPIL12ERR_LASTCODEE
00000000000000f8 l     O .rodata	0000000000000004 _ZN3MPIL9PROC_NULLE
00000000000000fc l     O .rodata	0000000000000004 _ZN3MPIL10ANY_SOURCEE
0000000000000100 l     O .rodata	0000000000000004 _ZN3MPIL4ROOTE
0000000000000104 l     O .rodata	0000000000000004 _ZN3MPIL7ANY_TAGE
0000000000000108 l     O .rodata	0000000000000004 _ZN3MPIL9UNDEFINEDE
000000000000010c l     O .rodata	0000000000000004 _ZN3MPIL14BSEND_OVERHEADE
0000000000000110 l     O .rodata	0000000000000004 _ZN3MPIL14KEYVAL_INVALIDE
0000000000000114 l     O .rodata	0000000000000004 _ZN3MPIL7ORDER_CE
0000000000000118 l     O .rodata	0000000000000004 _ZN3MPIL13ORDER_FORTRANE
000000000000011c l     O .rodata	0000000000000004 _ZN3MPIL16DISTRIBUTE_BLOCKE
0000000000000120 l     O .rodata	0000000000000004 _ZN3MPIL17DISTRIBUTE_CYCLICE
0000000000000124 l     O .rodata	0000000000000004 _ZN3MPIL15DISTRIBUTE_NONEE
0000000000000128 l     O .rodata	0000000000000004 _ZN3MPIL20DISTRIBUTE_DFLT_DARGE
000000000000012c l     O .rodata	0000000000000004 _ZN3MPIL17TYPECLASS_INTEGERE
0000000000000130 l     O .rodata	0000000000000004 _ZN3MPIL14TYPECLASS_REALE
0000000000000134 l     O .rodata	0000000000000004 _ZN3MPIL17TYPECLASS_COMPLEXE
0000000000000138 l     O .rodata	0000000000000004 _ZN3MPIL18MAX_PROCESSOR_NAMEE
000000000000013c l     O .rodata	0000000000000004 _ZN3MPIL16MAX_ERROR_STRINGE
0000000000000140 l     O .rodata	0000000000000004 _ZN3MPIL12MAX_INFO_KEYE
0000000000000144 l     O .rodata	0000000000000004 _ZN3MPIL12MAX_INFO_VALE
0000000000000148 l     O .rodata	0000000000000004 _ZN3MPIL13MAX_PORT_NAMEE
000000000000014c l     O .rodata	0000000000000004 _ZN3MPIL15MAX_OBJECT_NAMEE
0000000000000150 l     O .rodata	0000000000000004 _ZN3MPIL14COMBINER_NAMEDE
0000000000000154 l     O .rodata	0000000000000004 _ZN3MPIL12COMBINER_DUPE
0000000000000158 l     O .rodata	0000000000000004 _ZN3MPIL19COMBINER_CONTIGUOUSE
000000000000015c l     O .rodata	0000000000000004 _ZN3MPIL15COMBINER_VECTORE
0000000000000160 l     O .rodata	0000000000000004 _ZN3MPIL24COMBINER_HVECTOR_INTEGERE
0000000000000164 l     O .rodata	0000000000000004 _ZN3MPIL16COMBINER_HVECTORE
0000000000000168 l     O .rodata	0000000000000004 _ZN3MPIL16COMBINER_INDEXEDE
000000000000016c l     O .rodata	0000000000000004 _ZN3MPIL25COMBINER_HINDEXED_INTEGERE
0000000000000170 l     O .rodata	0000000000000004 _ZN3MPIL17COMBINER_HINDEXEDE
0000000000000174 l     O .rodata	0000000000000004 _ZN3MPIL22COMBINER_INDEXED_BLOCKE
0000000000000178 l     O .rodata	0000000000000004 _ZN3MPIL23COMBINER_STRUCT_INTEGERE
000000000000017c l     O .rodata	0000000000000004 _ZN3MPIL15COMBINER_STRUCTE
0000000000000180 l     O .rodata	0000000000000004 _ZN3MPIL17COMBINER_SUBARRAYE
0000000000000184 l     O .rodata	0000000000000004 _ZN3MPIL15COMBINER_DARRAYE
0000000000000188 l     O .rodata	0000000000000004 _ZN3MPIL17COMBINER_F90_REALE
000000000000018c l     O .rodata	0000000000000004 _ZN3MPIL20COMBINER_F90_COMPLEXE
0000000000000190 l     O .rodata	0000000000000004 _ZN3MPIL20COMBINER_F90_INTEGERE
0000000000000194 l     O .rodata	0000000000000004 _ZN3MPIL16COMBINER_RESIZEDE
0000000000000198 l     O .rodata	0000000000000004 _ZN3MPIL13THREAD_SINGLEE
000000000000019c l     O .rodata	0000000000000004 _ZN3MPIL15THREAD_FUNNELEDE
00000000000001a0 l     O .rodata	0000000000000004 _ZN3MPIL17THREAD_SERIALIZEDE
00000000000001a4 l     O .rodata	0000000000000004 _ZN3MPIL15THREAD_MULTIPLEE
00000000000001a8 l     O .rodata	0000000000000004 _ZN3MPIL5IDENTE
00000000000001ac l     O .rodata	0000000000000004 _ZN3MPIL9CONGRUENTE
00000000000001b0 l     O .rodata	0000000000000004 _ZN3MPIL7SIMILARE
00000000000001b4 l     O .rodata	0000000000000004 _ZN3MPIL7UNEQUALE
00000000000001b8 l     O .rodata	0000000000000004 _ZN3MPIL6TAG_UBE
00000000000001bc l     O .rodata	0000000000000004 _ZN3MPIL4HOSTE
00000000000001c0 l     O .rodata	0000000000000004 _ZN3MPIL2IOE
00000000000001c4 l     O .rodata	0000000000000004 _ZN3MPIL15WTIME_IS_GLOBALE
00000000000001c8 l     O .rodata	0000000000000004 _ZN3MPIL6APPNUME
00000000000001cc l     O .rodata	0000000000000004 _ZN3MPIL12LASTUSEDCODEE
00000000000001d0 l     O .rodata	0000000000000004 _ZN3MPIL13UNIVERSE_SIZEE
00000000000001d4 l     O .rodata	0000000000000004 _ZN3MPIL8WIN_BASEE
00000000000001d8 l     O .rodata	0000000000000004 _ZN3MPIL8WIN_SIZEE
00000000000001dc l     O .rodata	0000000000000004 _ZN3MPIL13WIN_DISP_UNITE
00000000000001e0 l     O .rodata	0000000000000004 _ZN3MPIL5GRAPHE
00000000000001e4 l     O .rodata	0000000000000004 _ZN3MPIL4CARTE
00000000000001e8 l     O .rodata	0000000000000004 _ZN3MPIL11MODE_CREATEE
00000000000001ec l     O .rodata	0000000000000004 _ZN3MPIL11MODE_RDONLYE
00000000000001f0 l     O .rodata	0000000000000004 _ZN3MPIL11MODE_WRONLYE
00000000000001f4 l     O .rodata	0000000000000004 _ZN3MPIL9MODE_RDWRE
00000000000001f8 l     O .rodata	0000000000000004 _ZN3MPIL20MODE_DELETE_ON_CLOSEE
00000000000001fc l     O .rodata	0000000000000004 _ZN3MPIL16MODE_UNIQUE_OPENE
0000000000000200 l     O .rodata	0000000000000004 _ZN3MPIL9MODE_EXCLE
0000000000000204 l     O .rodata	0000000000000004 _ZN3MPIL11MODE_APPENDE
0000000000000208 l     O .rodata	0000000000000004 _ZN3MPIL15MODE_SEQUENTIALE
000000000000020c l     O .rodata	0000000000000004 _ZN3MPIL20DISPLACEMENT_CURRENTE
0000000000000210 l     O .rodata	0000000000000004 _ZN3MPIL8SEEK_SETE
0000000000000214 l     O .rodata	0000000000000004 _ZN3MPIL8SEEK_CURE
0000000000000218 l     O .rodata	0000000000000004 _ZN3MPIL8SEEK_ENDE
000000000000021c l     O .rodata	0000000000000004 _ZN3MPIL18MAX_DATAREP_STRINGE
0000000000000220 l     O .rodata	0000000000000004 _ZN3MPIL12MODE_NOCHECKE
0000000000000224 l     O .rodata	0000000000000004 _ZN3MPIL14MODE_NOPRECEDEE
0000000000000228 l     O .rodata	0000000000000004 _ZN3MPIL10MODE_NOPUTE
000000000000022c l     O .rodata	0000000000000004 _ZN3MPIL12MODE_NOSTOREE
0000000000000230 l     O .rodata	0000000000000004 _ZN3MPIL14MODE_NOSUCCEEDE
0000000000000234 l     O .rodata	0000000000000004 _ZN3MPIL14LOCK_EXCLUSIVEE
0000000000000238 l     O .rodata	0000000000000004 _ZN3MPIL11LOCK_SHAREDE
0000000000000000 l    d  .text._ZN3MPI8DatatypeD2Ev	0000000000000000 .text._ZN3MPI8DatatypeD2Ev
0000000000000000 l    d  .text._ZN3MPI8DatatypeD0Ev	0000000000000000 .text._ZN3MPI8DatatypeD0Ev
0000000000000000 l    d  .text._ZN3MPI8DatatypeC2EP15ompi_datatype_t	0000000000000000 .text._ZN3MPI8DatatypeC2EP15ompi_datatype_t
0000000000000000 l    d  .text._ZN3MPI8DatatypeaSERKP15ompi_datatype_t	0000000000000000 .text._ZN3MPI8DatatypeaSERKP15ompi_datatype_t
0000000000000000 l    d  .text._ZNK3MPI8DatatypecvP15ompi_datatype_tEv	0000000000000000 .text._ZNK3MPI8DatatypecvP15ompi_datatype_tEv
0000000000000000 l    d  .text._ZN3MPI6StatusD2Ev	0000000000000000 .text._ZN3MPI6StatusD2Ev
0000000000000000 l    d  .text._ZN3MPI6StatusD0Ev	0000000000000000 .text._ZN3MPI6StatusD0Ev
0000000000000000 l    d  .text._ZN3MPI6StatusaSERK20ompi_status_public_t	0000000000000000 .text._ZN3MPI6StatusaSERK20ompi_status_public_t
0000000000000000 l    d  .text._ZN3MPI7RequestD2Ev	0000000000000000 .text._ZN3MPI7RequestD2Ev
0000000000000000 l    d  .text._ZN3MPI7RequestD0Ev	0000000000000000 .text._ZN3MPI7RequestD0Ev
0000000000000000 l    d  .text._ZN3MPI7RequestC2EP14ompi_request_t	0000000000000000 .text._ZN3MPI7RequestC2EP14ompi_request_t
0000000000000000 l    d  .text._ZN3MPI8PrequestC2ERKP14ompi_request_t	0000000000000000 .text._ZN3MPI8PrequestC2ERKP14ompi_request_t
0000000000000000 l    d  .text._ZN3MPI8PrequestD2Ev	0000000000000000 .text._ZN3MPI8PrequestD2Ev
0000000000000000 l    d  .text._ZN3MPI8PrequestD0Ev	0000000000000000 .text._ZN3MPI8PrequestD0Ev
0000000000000000 l    d  .text._ZN3MPI8GrequestD2Ev	0000000000000000 .text._ZN3MPI8GrequestD2Ev
0000000000000000 l    d  .text._ZN3MPI8GrequestD0Ev	0000000000000000 .text._ZN3MPI8GrequestD0Ev
0000000000000000 l    d  .text._ZN3MPI5GroupC2EP12ompi_group_t	0000000000000000 .text._ZN3MPI5GroupC2EP12ompi_group_t
0000000000000000 l    d  .text._ZN3MPI5GroupD2Ev	0000000000000000 .text._ZN3MPI5GroupD2Ev
0000000000000000 l    d  .text._ZN3MPI5GroupD0Ev	0000000000000000 .text._ZN3MPI5GroupD0Ev
0000000000000000 l    d  .text._ZNK3MPI5GroupcvP12ompi_group_tEv	0000000000000000 .text._ZNK3MPI5GroupcvP12ompi_group_tEv
0000000000000000 l    d  .text._ZN3MPI9Comm_NullC2EP19ompi_communicator_t	0000000000000000 .text._ZN3MPI9Comm_NullC2EP19ompi_communicator_t
0000000000000000 l    d  .text._ZN3MPI9Comm_NullD2Ev	0000000000000000 .text._ZN3MPI9Comm_NullD2Ev
0000000000000000 l    d  .text._ZN3MPI9Comm_NullD0Ev	0000000000000000 .text._ZN3MPI9Comm_NullD0Ev
0000000000000000 l    d  .text._ZNK3MPI9Comm_NullcvP19ompi_communicator_tEv	0000000000000000 .text._ZNK3MPI9Comm_NullcvP19ompi_communicator_tEv
0000000000000000 l    d  .text._ZN3MPI4CommC2EP19ompi_communicator_t	0000000000000000 .text._ZN3MPI4CommC2EP19ompi_communicator_t
0000000000000000 l    d  .text._ZN3MPI3WinD2Ev	0000000000000000 .text._ZN3MPI3WinD2Ev
0000000000000000 l    d  .text._ZN3MPI3WinD0Ev	0000000000000000 .text._ZN3MPI3WinD0Ev
0000000000000000 l    d  .text._ZN3MPI10ErrhandlerD2Ev	0000000000000000 .text._ZN3MPI10ErrhandlerD2Ev
0000000000000000 l    d  .text._ZN3MPI10ErrhandlerD0Ev	0000000000000000 .text._ZN3MPI10ErrhandlerD0Ev
0000000000000000 l    d  .text._ZN3MPI10ErrhandlerC2EP17ompi_errhandler_t	0000000000000000 .text._ZN3MPI10ErrhandlerC2EP17ompi_errhandler_t
0000000000000000 l    d  .text._ZNK3MPI10ErrhandlercvP17ompi_errhandler_tEv	0000000000000000 .text._ZNK3MPI10ErrhandlercvP17ompi_errhandler_tEv
0000000000000000 l    d  .text._ZN3MPI4CommD2Ev	0000000000000000 .text._ZN3MPI4CommD2Ev
0000000000000000 l    d  .text._ZN3MPI4CommD0Ev	0000000000000000 .text._ZN3MPI4CommD0Ev
0000000000000000 l    d  .text._ZN3MPI9IntracommC2Ev	0000000000000000 .text._ZN3MPI9IntracommC2Ev
0000000000000000 l    d  .text._ZN3MPI9IntracommD2Ev	0000000000000000 .text._ZN3MPI9IntracommD2Ev
0000000000000000 l    d  .text._ZN3MPI9IntracommD0Ev	0000000000000000 .text._ZN3MPI9IntracommD0Ev
0000000000000000 l    d  .text._ZN3MPI9IntercommC2EP19ompi_communicator_t	0000000000000000 .text._ZN3MPI9IntercommC2EP19ompi_communicator_t
0000000000000000 l    d  .text._ZN3MPI4InfoC2EP11ompi_info_t	0000000000000000 .text._ZN3MPI4InfoC2EP11ompi_info_t
0000000000000000 l    d  .text._ZN3MPI4InfoD2Ev	0000000000000000 .text._ZN3MPI4InfoD2Ev
0000000000000000 l    d  .text._ZN3MPI4InfoD0Ev	0000000000000000 .text._ZN3MPI4InfoD0Ev
0000000000000000 l    d  .text._ZNK3MPI4InfocvP11ompi_info_tEv	0000000000000000 .text._ZNK3MPI4InfocvP11ompi_info_tEv
0000000000000000 l    d  .text._ZNK3MPI8Datatype17Create_contiguousEi	0000000000000000 .text._ZNK3MPI8Datatype17Create_contiguousEi
0000000000000000 l    d  .text._ZNK3MPI8Datatype13Create_vectorEiii	0000000000000000 .text._ZNK3MPI8Datatype13Create_vectorEiii
0000000000000000 l    d  .text._ZNK3MPI8Datatype14Create_indexedEiPKiS2_	0000000000000000 .text._ZNK3MPI8Datatype14Create_indexedEiPKiS2_
0000000000000000 l    d  .text._ZNK3MPI8Datatype15Create_hindexedEiPKiPKl	0000000000000000 .text._ZNK3MPI8Datatype15Create_hindexedEiPKiPKl
0000000000000000 l    d  .text._ZNK3MPI8Datatype14Create_hvectorEiil	0000000000000000 .text._ZNK3MPI8Datatype14Create_hvectorEiil
0000000000000000 l    d  .text._ZNK3MPI8Datatype20Create_indexed_blockEiiPKi	0000000000000000 .text._ZNK3MPI8Datatype20Create_indexed_blockEiiPKi
0000000000000000 l    d  .text._ZNK3MPI8Datatype14Create_resizedEll	0000000000000000 .text._ZNK3MPI8Datatype14Create_resizedEll
0000000000000000 l    d  .text._ZNK3MPI8Datatype8Get_sizeEv	0000000000000000 .text._ZNK3MPI8Datatype8Get_sizeEv
0000000000000000 l    d  .text._ZNK3MPI8Datatype10Get_extentERlS1_	0000000000000000 .text._ZNK3MPI8Datatype10Get_extentERlS1_
0000000000000000 l    d  .text._ZNK3MPI8Datatype15Get_true_extentERlS1_	0000000000000000 .text._ZNK3MPI8Datatype15Get_true_extentERlS1_
0000000000000000 l    d  .text._ZN3MPI8Datatype6CommitEv	0000000000000000 .text._ZN3MPI8Datatype6CommitEv
0000000000000000 l    d  .text._ZNK3MPI8Datatype4PackEPKviPviRiRKNS_4CommE	0000000000000000 .text._ZNK3MPI8Datatype4PackEPKviPviRiRKNS_4CommE
0000000000000000 l    d  .text._ZNK3MPI8Datatype6UnpackEPKviPviRiRKNS_4CommE	0000000000000000 .text._ZNK3MPI8Datatype6UnpackEPKviPviRiRKNS_4CommE
0000000000000000 l    d  .text._ZNK3MPI8Datatype9Pack_sizeEiRKNS_4CommE	0000000000000000 .text._ZNK3MPI8Datatype9Pack_sizeEiRKNS_4CommE
0000000000000000 l    d  .text._ZNK3MPI8Datatype13Pack_externalEPKcPKviPvlRl	0000000000000000 .text._ZNK3MPI8Datatype13Pack_externalEPKcPKviPvlRl
0000000000000000 l    d  .text._ZNK3MPI8Datatype18Pack_external_sizeEPKci	0000000000000000 .text._ZNK3MPI8Datatype18Pack_external_sizeEPKci
0000000000000000 l    d  .text._ZNK3MPI8Datatype15Unpack_externalEPKcPKvlRlPvi	0000000000000000 .text._ZNK3MPI8Datatype15Unpack_externalEPKcPKvlRlPvi
0000000000000000 l    d  .text._ZNK3MPI8Datatype15Create_subarrayEiPKiS2_S2_i	0000000000000000 .text._ZNK3MPI8Datatype15Create_subarrayEiPKiS2_S2_i
0000000000000000 l    d  .text._ZNK3MPI8Datatype13Create_darrayEiiiPKiS2_S2_S2_i	0000000000000000 .text._ZNK3MPI8Datatype13Create_darrayEiiiPKiS2_S2_S2_i
0000000000000000 l    d  .text._ZNK3MPI8Datatype3DupEv	0000000000000000 .text._ZNK3MPI8Datatype3DupEv
0000000000000000 l    d  .text._ZN3MPI8Datatype11Delete_attrEi	0000000000000000 .text._ZN3MPI8Datatype11Delete_attrEi
0000000000000000 l    d  .text._ZNK3MPI8Datatype8Get_attrEiPv	0000000000000000 .text._ZNK3MPI8Datatype8Get_attrEiPv
0000000000000000 l    d  .text._ZNK3MPI8Datatype12Get_contentsEiiiPiPlPS0_	0000000000000000 .text._ZNK3MPI8Datatype12Get_contentsEiiiPiPlPS0_
0000000000000000 l    d  .text._ZNK3MPI8Datatype12Get_envelopeERiS1_S1_S1_	0000000000000000 .text._ZNK3MPI8Datatype12Get_envelopeERiS1_S1_S1_
0000000000000000 l    d  .text._ZNK3MPI8Datatype8Get_nameEPcRi	0000000000000000 .text._ZNK3MPI8Datatype8Get_nameEPcRi
0000000000000000 l    d  .text._ZN3MPI8Datatype8Set_attrEiPKv	0000000000000000 .text._ZN3MPI8Datatype8Set_attrEiPKv
0000000000000000 l    d  .text._ZN3MPI8Datatype8Set_nameEPKc	0000000000000000 .text._ZN3MPI8Datatype8Set_nameEPKc
0000000000000000 l    d  .text._ZN3MPI14Is_initializedEv	0000000000000000 .text._ZN3MPI14Is_initializedEv
0000000000000000 l    d  .text._ZN3MPI7Request4WaitERNS_6StatusE	0000000000000000 .text._ZN3MPI7Request4WaitERNS_6StatusE
0000000000000000 l    d  .text._ZN3MPI7Request4WaitEv	0000000000000000 .text._ZN3MPI7Request4WaitEv
0000000000000000 l    d  .text._ZN3MPI7Request4FreeEv	0000000000000000 .text._ZN3MPI7Request4FreeEv
0000000000000000 l    d  .text._ZN3MPI7Request4TestERNS_6StatusE	0000000000000000 .text._ZN3MPI7Request4TestERNS_6StatusE
0000000000000000 l    d  .text._ZN3MPI7Request4TestEv	0000000000000000 .text._ZN3MPI7Request4TestEv
0000000000000000 l    d  .text._ZNK3MPI7Request6CancelEv	0000000000000000 .text._ZNK3MPI7Request6CancelEv
0000000000000000 l    d  .text._ZN3MPI8Prequest5StartEv	0000000000000000 .text._ZN3MPI8Prequest5StartEv
0000000000000000 l    d  .text._ZNK3MPI7Request10Get_statusERNS_6StatusE	0000000000000000 .text._ZNK3MPI7Request10Get_statusERNS_6StatusE
0000000000000000 l    d  .text._ZNK3MPI7Request10Get_statusEv	0000000000000000 .text._ZNK3MPI7Request10Get_statusEv
0000000000000000 l    d  .text._ZN3MPI8Grequest8CompleteEv	0000000000000000 .text._ZN3MPI8Grequest8CompleteEv
0000000000000000 l    d  .text._ZNK3MPI4Comm4SendEPKviRKNS_8DatatypeEii	0000000000000000 .text._ZNK3MPI4Comm4SendEPKviRKNS_8DatatypeEii
0000000000000000 l    d  .text._ZNK3MPI4Comm4RecvEPviRKNS_8DatatypeEiiRNS_6StatusE	0000000000000000 .text._ZNK3MPI4Comm4RecvEPviRKNS_8DatatypeEiiRNS_6StatusE
0000000000000000 l    d  .text._ZNK3MPI4Comm4RecvEPviRKNS_8DatatypeEii	0000000000000000 .text._ZNK3MPI4Comm4RecvEPviRKNS_8DatatypeEii
0000000000000000 l    d  .text._ZNK3MPI4Comm5BsendEPKviRKNS_8DatatypeEii	0000000000000000 .text._ZNK3MPI4Comm5BsendEPKviRKNS_8DatatypeEii
0000000000000000 l    d  .text._ZNK3MPI4Comm5SsendEPKviRKNS_8DatatypeEii	0000000000000000 .text._ZNK3MPI4Comm5SsendEPKviRKNS_8DatatypeEii
0000000000000000 l    d  .text._ZNK3MPI4Comm5RsendEPKviRKNS_8DatatypeEii	0000000000000000 .text._ZNK3MPI4Comm5RsendEPKviRKNS_8DatatypeEii
0000000000000000 l    d  .text._ZNK3MPI4Comm5IsendEPKviRKNS_8DatatypeEii	0000000000000000 .text._ZNK3MPI4Comm5IsendEPKviRKNS_8DatatypeEii
0000000000000000 l    d  .text._ZNK3MPI4Comm6IbsendEPKviRKNS_8DatatypeEii	0000000000000000 .text._ZNK3MPI4Comm6IbsendEPKviRKNS_8DatatypeEii
0000000000000000 l    d  .text._ZNK3MPI4Comm6IssendEPKviRKNS_8DatatypeEii	0000000000000000 .text._ZNK3MPI4Comm6IssendEPKviRKNS_8DatatypeEii
0000000000000000 l    d  .text._ZNK3MPI4Comm6IrsendEPKviRKNS_8DatatypeEii	0000000000000000 .text._ZNK3MPI4Comm6IrsendEPKviRKNS_8DatatypeEii
0000000000000000 l    d  .text._ZNK3MPI4Comm5IrecvEPviRKNS_8DatatypeEii	0000000000000000 .text._ZNK3MPI4Comm5IrecvEPviRKNS_8DatatypeEii
0000000000000000 l    d  .text._ZNK3MPI4Comm6IprobeEiiRNS_6StatusE	0000000000000000 .text._ZNK3MPI4Comm6IprobeEiiRNS_6StatusE
0000000000000000 l    d  .text._ZNK3MPI4Comm6IprobeEii	0000000000000000 .text._ZNK3MPI4Comm6IprobeEii
0000000000000000 l    d  .text._ZNK3MPI4Comm5ProbeEiiRNS_6StatusE	0000000000000000 .text._ZNK3MPI4Comm5ProbeEiiRNS_6StatusE
0000000000000000 l    d  .text._ZNK3MPI4Comm5ProbeEii	0000000000000000 .text._ZNK3MPI4Comm5ProbeEii
0000000000000000 l    d  .text._ZNK3MPI4Comm9Send_initEPKviRKNS_8DatatypeEii	0000000000000000 .text._ZNK3MPI4Comm9Send_initEPKviRKNS_8DatatypeEii
0000000000000000 l    d  .text._ZNK3MPI4Comm10Bsend_initEPKviRKNS_8DatatypeEii	0000000000000000 .text._ZNK3MPI4Comm10Bsend_initEPKviRKNS_8DatatypeEii
0000000000000000 l    d  .text._ZNK3MPI4Comm10Ssend_initEPKviRKNS_8DatatypeEii	0000000000000000 .text._ZNK3MPI4Comm10Ssend_initEPKviRKNS_8DatatypeEii
0000000000000000 l    d  .text._ZNK3MPI4Comm10Rsend_initEPKviRKNS_8DatatypeEii	0000000000000000 .text._ZNK3MPI4Comm10Rsend_initEPKviRKNS_8DatatypeEii
0000000000000000 l    d  .text._ZNK3MPI4Comm9Recv_initEPviRKNS_8DatatypeEii	0000000000000000 .text._ZNK3MPI4Comm9Recv_initEPviRKNS_8DatatypeEii
0000000000000000 l    d  .text._ZNK3MPI4Comm8SendrecvEPKviRKNS_8DatatypeEiiPviS5_iiRNS_6StatusE	0000000000000000 .text._ZNK3MPI4Comm8SendrecvEPKviRKNS_8DatatypeEiiPviS5_iiRNS_6StatusE
0000000000000000 l    d  .text._ZNK3MPI4Comm8SendrecvEPKviRKNS_8DatatypeEiiPviS5_ii	0000000000000000 .text._ZNK3MPI4Comm8SendrecvEPKviRKNS_8DatatypeEiiPviS5_ii
0000000000000000 l    d  .text._ZNK3MPI4Comm16Sendrecv_replaceEPviRKNS_8DatatypeEiiiiRNS_6StatusE	0000000000000000 .text._ZNK3MPI4Comm16Sendrecv_replaceEPviRKNS_8DatatypeEiiiiRNS_6StatusE
0000000000000000 l    d  .text._ZNK3MPI4Comm16Sendrecv_replaceEPviRKNS_8DatatypeEiiii	0000000000000000 .text._ZNK3MPI4Comm16Sendrecv_replaceEPviRKNS_8DatatypeEiiii
0000000000000000 l    d  .text._ZNK3MPI4Comm9Get_groupEv	0000000000000000 .text._ZNK3MPI4Comm9Get_groupEv
0000000000000000 l    d  .text._ZNK3MPI4Comm8Get_sizeEv	0000000000000000 .text._ZNK3MPI4Comm8Get_sizeEv
0000000000000000 l    d  .text._ZNK3MPI4Comm8Get_rankEv	0000000000000000 .text._ZNK3MPI4Comm8Get_rankEv
0000000000000000 l    d  .text._ZN3MPI4Comm4FreeEv	0000000000000000 .text._ZN3MPI4Comm4FreeEv
0000000000000000 l    d  .text._ZNK3MPI4Comm8Is_interEv	0000000000000000 .text._ZNK3MPI4Comm8Is_interEv
0000000000000000 l    d  .text._ZNK3MPI4Comm7BarrierEv	0000000000000000 .text._ZNK3MPI4Comm7BarrierEv
0000000000000000 l    d  .text._ZNK3MPI4Comm5BcastEPviRKNS_8DatatypeEi	0000000000000000 .text._ZNK3MPI4Comm5BcastEPviRKNS_8DatatypeEi
0000000000000000 l    d  .text._ZNK3MPI4Comm6GatherEPKviRKNS_8DatatypeEPviS5_i	0000000000000000 .text._ZNK3MPI4Comm6GatherEPKviRKNS_8DatatypeEPviS5_i
0000000000000000 l    d  .text._ZNK3MPI4Comm7GathervEPKviRKNS_8DatatypeEPvPKiS8_S5_i	0000000000000000 .text._ZNK3MPI4Comm7GathervEPKviRKNS_8DatatypeEPvPKiS8_S5_i
0000000000000000 l    d  .text._ZNK3MPI4Comm7ScatterEPKviRKNS_8DatatypeEPviS5_i	0000000000000000 .text._ZNK3MPI4Comm7ScatterEPKviRKNS_8DatatypeEPviS5_i
0000000000000000 l    d  .text._ZNK3MPI4Comm8ScattervEPKvPKiS4_RKNS_8DatatypeEPviS7_i	0000000000000000 .text._ZNK3MPI4Comm8ScattervEPKvPKiS4_RKNS_8DatatypeEPviS7_i
0000000000000000 l    d  .text._ZNK3MPI4Comm9AllgatherEPKviRKNS_8DatatypeEPviS5_	0000000000000000 .text._ZNK3MPI4Comm9AllgatherEPKviRKNS_8DatatypeEPviS5_
0000000000000000 l    d  .text._ZNK3MPI4Comm10AllgathervEPKviRKNS_8DatatypeEPvPKiS8_S5_	0000000000000000 .text._ZNK3MPI4Comm10AllgathervEPKviRKNS_8DatatypeEPvPKiS8_S5_
0000000000000000 l    d  .text._ZNK3MPI4Comm8AlltoallEPKviRKNS_8DatatypeEPviS5_	0000000000000000 .text._ZNK3MPI4Comm8AlltoallEPKviRKNS_8DatatypeEPviS5_
0000000000000000 l    d  .text._ZNK3MPI4Comm9AlltoallvEPKvPKiS4_RKNS_8DatatypeEPvS4_S4_S7_	0000000000000000 .text._ZNK3MPI4Comm9AlltoallvEPKvPKiS4_RKNS_8DatatypeEPvS4_S4_S7_
0000000000000000 l    d  .text._ZNK3MPI4Comm9AlltoallwEPKvPKiS4_PKNS_8DatatypeEPvS4_S4_S7_	0000000000000000 .text._ZNK3MPI4Comm9AlltoallwEPKvPKiS4_PKNS_8DatatypeEPvS4_S4_S7_
0000000000000000 l    d  .text._ZNK3MPI4Comm6ReduceEPKvPviRKNS_8DatatypeERKNS_2OpEi	0000000000000000 .text._ZNK3MPI4Comm6ReduceEPKvPviRKNS_8DatatypeERKNS_2OpEi
0000000000000000 l    d  .text._ZNK3MPI4Comm9AllreduceEPKvPviRKNS_8DatatypeERKNS_2OpE	0000000000000000 .text._ZNK3MPI4Comm9AllreduceEPKvPviRKNS_8DatatypeERKNS_2OpE
0000000000000000 l    d  .text._ZNK3MPI4Comm14Reduce_scatterEPKvPvPiRKNS_8DatatypeERKNS_2OpE	0000000000000000 .text._ZNK3MPI4Comm14Reduce_scatterEPKvPvPiRKNS_8DatatypeERKNS_2OpE
0000000000000000 l    d  .text._ZN3MPI4Comm10DisconnectEv	0000000000000000 .text._ZN3MPI4Comm10DisconnectEv
0000000000000000 l    d  .text._ZNK3MPI4Comm8Get_nameEPcRi	0000000000000000 .text._ZNK3MPI4Comm8Get_nameEPcRi
0000000000000000 l    d  .text._ZN3MPI4Comm8Set_nameEPKc	0000000000000000 .text._ZN3MPI4Comm8Set_nameEPKc
0000000000000000 l    d  .text._ZNK3MPI4Comm12Get_topologyEv	0000000000000000 .text._ZNK3MPI4Comm12Get_topologyEv
0000000000000000 l    d  .text._ZN3MPI4Comm5AbortEi	0000000000000000 .text._ZN3MPI4Comm5AbortEi
0000000000000000 l    d  .text._ZNK3MPI4Comm14Get_errhandlerEv	0000000000000000 .text._ZNK3MPI4Comm14Get_errhandlerEv
0000000000000000 l    d  .text._ZN3MPI4Comm14Set_errhandlerERKNS_10ErrhandlerE	0000000000000000 .text._ZN3MPI4Comm14Set_errhandlerERKNS_10ErrhandlerE
0000000000000000 l    d  .text._ZNK3MPI4Comm8Set_attrEiPKv	0000000000000000 .text._ZNK3MPI4Comm8Set_attrEiPKv
0000000000000000 l    d  .text._ZNK3MPI4Comm8Get_attrEiPv	0000000000000000 .text._ZNK3MPI4Comm8Get_attrEiPv
0000000000000000 l    d  .text._ZN3MPI4Comm11Delete_attrEi	0000000000000000 .text._ZN3MPI4Comm11Delete_attrEi
0000000000000000 l    d  .text._ZN3MPI9IntracommC2EP19ompi_communicator_t	0000000000000000 .text._ZN3MPI9IntracommC2EP19ompi_communicator_t
0000000000000000 l    d  .gcc_except_table._ZN3MPI9IntracommC2EP19ompi_communicator_t	0000000000000000 .gcc_except_table._ZN3MPI9IntracommC2EP19ompi_communicator_t
0000000000000000 l    d  .text._ZNK3MPI9Intracomm4ScanEPKvPviRKNS_8DatatypeERKNS_2OpE	0000000000000000 .text._ZNK3MPI9Intracomm4ScanEPKvPviRKNS_8DatatypeERKNS_2OpE
0000000000000000 l    d  .text._ZNK3MPI9Intracomm6ExscanEPKvPviRKNS_8DatatypeERKNS_2OpE	0000000000000000 .text._ZNK3MPI9Intracomm6ExscanEPKvPviRKNS_8DatatypeERKNS_2OpE
0000000000000000 l    d  .text._ZNK3MPI9Intracomm5CloneEv	0000000000000000 .text._ZNK3MPI9Intracomm5CloneEv
0000000000000000 l    d  .gcc_except_table._ZNK3MPI9Intracomm5CloneEv	0000000000000000 .gcc_except_table._ZNK3MPI9Intracomm5CloneEv
0000000000000000 l    d  .text._ZNK3MPI9Intracomm6CreateERKNS_5GroupE	0000000000000000 .text._ZNK3MPI9Intracomm6CreateERKNS_5GroupE
0000000000000000 l    d  .text._ZNK3MPI9Intracomm5SplitEii	0000000000000000 .text._ZNK3MPI9Intracomm5SplitEii
0000000000000000 l    d  .text._ZNK3MPI9Intracomm16Create_intercommEiRKNS_4CommEii	0000000000000000 .text._ZNK3MPI9Intracomm16Create_intercommEiRKNS_4CommEii
0000000000000000 l    d  .text._ZNK3MPI9Intracomm11Create_cartEiPKiPKbb	0000000000000000 .text._ZNK3MPI9Intracomm11Create_cartEiPKiPKbb
0000000000000000 l    d  .text._ZNK3MPI9Intracomm12Create_graphEiPKiS2_b	0000000000000000 .text._ZNK3MPI9Intracomm12Create_graphEiPKiS2_b
0000000000000000 l    d  .text._ZNK3MPI9Intracomm6AcceptEPKcRKNS_4InfoEi	0000000000000000 .text._ZNK3MPI9Intracomm6AcceptEPKcRKNS_4InfoEi
0000000000000000 l    d  .text._ZNK3MPI9Intracomm7ConnectEPKcRKNS_4InfoEi	0000000000000000 .text._ZNK3MPI9Intracomm7ConnectEPKcRKNS_4InfoEi
0000000000000000 l    d  .text._ZNK3MPI9Intracomm5SpawnEPKcPS2_iRKNS_4InfoEi	0000000000000000 .text._ZNK3MPI9Intracomm5SpawnEPKcPS2_iRKNS_4InfoEi
0000000000000000 l    d  .text._ZNK3MPI9Intracomm5SpawnEPKcPS2_iRKNS_4InfoEiPi	0000000000000000 .text._ZNK3MPI9Intracomm5SpawnEPKcPS2_iRKNS_4InfoEiPi
0000000000000000 l    d  .text._ZN3MPI9Intracomm14Spawn_multipleEiPPKcPS3_PKiPKNS_4InfoEi	0000000000000000 .text._ZN3MPI9Intracomm14Spawn_multipleEiPPKcPS3_PKiPKNS_4InfoEi
0000000000000000 l    d  .text._ZN3MPI9Intracomm24convert_info_to_mpi_infoEiPKNS_4InfoE	0000000000000000 .text._ZN3MPI9Intracomm24convert_info_to_mpi_infoEiPKNS_4InfoE
0000000000000000 l    d  .text._ZN3MPI9Intracomm14Spawn_multipleEiPPKcPS3_PKiPKNS_4InfoEiPi	0000000000000000 .text._ZN3MPI9Intracomm14Spawn_multipleEiPPKcPS3_PKiPKNS_4InfoEiPi
0000000000000000 l    d  .text._ZN3MPI8CartcommC2ERKP19ompi_communicator_t	0000000000000000 .text._ZN3MPI8CartcommC2ERKP19ompi_communicator_t
0000000000000000 l    d  .gcc_except_table._ZN3MPI8CartcommC2ERKP19ompi_communicator_t	0000000000000000 .gcc_except_table._ZN3MPI8CartcommC2ERKP19ompi_communicator_t
0000000000000000 l    d  .text._ZNK3MPI8Cartcomm7Get_dimEv	0000000000000000 .text._ZNK3MPI8Cartcomm7Get_dimEv
0000000000000000 l    d  .text._ZNK3MPI8Cartcomm8Get_topoEiPiPbS1_	0000000000000000 .text._ZNK3MPI8Cartcomm8Get_topoEiPiPbS1_
0000000000000000 l    d  .text._ZNK3MPI8Cartcomm13Get_cart_rankEPKi	0000000000000000 .text._ZNK3MPI8Cartcomm13Get_cart_rankEPKi
0000000000000000 l    d  .text._ZNK3MPI8Cartcomm10Get_coordsEiiPi	0000000000000000 .text._ZNK3MPI8Cartcomm10Get_coordsEiiPi
0000000000000000 l    d  .text._ZNK3MPI8Cartcomm5ShiftEiiRiS1_	0000000000000000 .text._ZNK3MPI8Cartcomm5ShiftEiiRiS1_
0000000000000000 l    d  .text._ZNK3MPI8Cartcomm3SubEPKb	0000000000000000 .text._ZNK3MPI8Cartcomm3SubEPKb
0000000000000000 l    d  .text._ZNK3MPI8Cartcomm3MapEiPKiPKb	0000000000000000 .text._ZNK3MPI8Cartcomm3MapEiPKiPKb
0000000000000000 l    d  .text._ZNK3MPI8Cartcomm5CloneEv	0000000000000000 .text._ZNK3MPI8Cartcomm5CloneEv
0000000000000000 l    d  .gcc_except_table._ZNK3MPI8Cartcomm5CloneEv	0000000000000000 .gcc_except_table._ZNK3MPI8Cartcomm5CloneEv
0000000000000000 l    d  .text._ZN3MPI9GraphcommC2ERKP19ompi_communicator_t	0000000000000000 .text._ZN3MPI9GraphcommC2ERKP19ompi_communicator_t
0000000000000000 l    d  .gcc_except_table._ZN3MPI9GraphcommC2ERKP19ompi_communicator_t	0000000000000000 .gcc_except_table._ZN3MPI9GraphcommC2ERKP19ompi_communicator_t
0000000000000000 l    d  .text._ZNK3MPI9Graphcomm8Get_dimsEPiS1_	0000000000000000 .text._ZNK3MPI9Graphcomm8Get_dimsEPiS1_
0000000000000000 l    d  .text._ZNK3MPI9Graphcomm8Get_topoEiiPiS1_	0000000000000000 .text._ZNK3MPI9Graphcomm8Get_topoEiiPiS1_
0000000000000000 l    d  .text._ZNK3MPI9Graphcomm19Get_neighbors_countEi	0000000000000000 .text._ZNK3MPI9Graphcomm19Get_neighbors_countEi
0000000000000000 l    d  .text._ZNK3MPI9Graphcomm13Get_neighborsEiiPi	0000000000000000 .text._ZNK3MPI9Graphcomm13Get_neighborsEiiPi
0000000000000000 l    d  .text._ZNK3MPI9Graphcomm3MapEiPKiS2_	0000000000000000 .text._ZNK3MPI9Graphcomm3MapEiPKiS2_
0000000000000000 l    d  .text._ZNK3MPI9Graphcomm5CloneEv	0000000000000000 .text._ZNK3MPI9Graphcomm5CloneEv
0000000000000000 l    d  .gcc_except_table._ZNK3MPI9Graphcomm5CloneEv	0000000000000000 .gcc_except_table._ZNK3MPI9Graphcomm5CloneEv
0000000000000000 l    d  .text._ZNK3MPI9Intercomm5CloneEv	0000000000000000 .text._ZNK3MPI9Intercomm5CloneEv
0000000000000000 l    d  .text._ZNK3MPI9Intercomm15Get_remote_sizeEv	0000000000000000 .text._ZNK3MPI9Intercomm15Get_remote_sizeEv
0000000000000000 l    d  .text._ZNK3MPI9Intercomm16Get_remote_groupEv	0000000000000000 .text._ZNK3MPI9Intercomm16Get_remote_groupEv
0000000000000000 l    d  .text._ZNK3MPI9Intercomm5MergeEb	0000000000000000 .text._ZNK3MPI9Intercomm5MergeEb
0000000000000000 l    d  .text._ZNK3MPI9Intercomm6CreateERKNS_5GroupE	0000000000000000 .text._ZNK3MPI9Intercomm6CreateERKNS_5GroupE
0000000000000000 l    d  .text._ZNK3MPI9Intercomm5SplitEii	0000000000000000 .text._ZNK3MPI9Intercomm5SplitEii
0000000000000000 l    d  .text._ZNK3MPI5Group8Get_sizeEv	0000000000000000 .text._ZNK3MPI5Group8Get_sizeEv
0000000000000000 l    d  .text._ZNK3MPI5Group8Get_rankEv	0000000000000000 .text._ZNK3MPI5Group8Get_rankEv
0000000000000000 l    d  .text._ZNK3MPI5Group4InclEiPKi	0000000000000000 .text._ZNK3MPI5Group4InclEiPKi
0000000000000000 l    d  .text._ZNK3MPI5Group4ExclEiPKi	0000000000000000 .text._ZNK3MPI5Group4ExclEiPKi
0000000000000000 l    d  .text._ZNK3MPI5Group10Range_inclEiPA3_Ki	0000000000000000 .text._ZNK3MPI5Group10Range_inclEiPA3_Ki
0000000000000000 l    d  .text._ZNK3MPI5Group10Range_exclEiPA3_Ki	0000000000000000 .text._ZNK3MPI5Group10Range_exclEiPA3_Ki
0000000000000000 l    d  .text._ZN3MPI5Group4FreeEv	0000000000000000 .text._ZN3MPI5Group4FreeEv
0000000000000000 l    d  .text._ZN3MPI2OpD2Ev	0000000000000000 .text._ZN3MPI2OpD2Ev
0000000000000000 l    d  .text._ZN3MPI2OpD0Ev	0000000000000000 .text._ZN3MPI2OpD0Ev
0000000000000000 l    d  .text._ZNK3MPI2OpcvP9ompi_op_tEv	0000000000000000 .text._ZNK3MPI2OpcvP9ompi_op_tEv
0000000000000000 l    d  .text._ZN3MPI2Op4InitEPFvPKvPviRKNS_8DatatypeEEb	0000000000000000 .text._ZN3MPI2Op4InitEPFvPKvPviRKNS_8DatatypeEEb
0000000000000000 l    d  .text._ZN3MPI2Op4FreeEv	0000000000000000 .text._ZN3MPI2Op4FreeEv
0000000000000000 l    d  .text._ZNK3MPI2Op12Reduce_localEPKvPviRKNS_8DatatypeE	0000000000000000 .text._ZNK3MPI2Op12Reduce_localEPKvPviRKNS_8DatatypeE
0000000000000000 l    d  .text._ZNK3MPI2Op14Is_commutativeEv	0000000000000000 .text._ZNK3MPI2Op14Is_commutativeEv
0000000000000000 l    d  .text._ZN3MPI10Errhandler4FreeEv	0000000000000000 .text._ZN3MPI10Errhandler4FreeEv
0000000000000000 l    d  .text._ZNK3MPI6Status9Get_countERKNS_8DatatypeE	0000000000000000 .text._ZNK3MPI6Status9Get_countERKNS_8DatatypeE
0000000000000000 l    d  .text._ZNK3MPI6Status12Is_cancelledEv	0000000000000000 .text._ZNK3MPI6Status12Is_cancelledEv
0000000000000000 l    d  .text._ZNK3MPI6Status12Get_elementsERKNS_8DatatypeE	0000000000000000 .text._ZNK3MPI6Status12Get_elementsERKNS_8DatatypeE
0000000000000000 l    d  .text._ZNK3MPI6Status10Get_sourceEv	0000000000000000 .text._ZNK3MPI6Status10Get_sourceEv
0000000000000000 l    d  .text._ZN3MPI6Status10Set_sourceEi	0000000000000000 .text._ZN3MPI6Status10Set_sourceEi
0000000000000000 l    d  .text._ZNK3MPI6Status7Get_tagEv	0000000000000000 .text._ZNK3MPI6Status7Get_tagEv
0000000000000000 l    d  .text._ZN3MPI6Status7Set_tagEi	0000000000000000 .text._ZN3MPI6Status7Set_tagEi
0000000000000000 l    d  .text._ZNK3MPI6Status9Get_errorEv	0000000000000000 .text._ZNK3MPI6Status9Get_errorEv
0000000000000000 l    d  .text._ZN3MPI6Status9Set_errorEi	0000000000000000 .text._ZN3MPI6Status9Set_errorEi
0000000000000000 l    d  .text._ZN3MPI6Status12Set_elementsERKNS_8DatatypeEi	0000000000000000 .text._ZN3MPI6Status12Set_elementsERKNS_8DatatypeEi
0000000000000000 l    d  .text._ZN3MPI6Status13Set_cancelledEb	0000000000000000 .text._ZN3MPI6Status13Set_cancelledEb
0000000000000000 l    d  .text._ZN3MPI4Info6DeleteEPKc	0000000000000000 .text._ZN3MPI4Info6DeleteEPKc
0000000000000000 l    d  .text._ZNK3MPI4Info3DupEv	0000000000000000 .text._ZNK3MPI4Info3DupEv
0000000000000000 l    d  .text._ZN3MPI4Info4FreeEv	0000000000000000 .text._ZN3MPI4Info4FreeEv
0000000000000000 l    d  .text._ZNK3MPI4Info3GetEPKciPc	0000000000000000 .text._ZNK3MPI4Info3GetEPKciPc
0000000000000000 l    d  .text._ZNK3MPI4Info9Get_nkeysEv	0000000000000000 .text._ZNK3MPI4Info9Get_nkeysEv
0000000000000000 l    d  .text._ZNK3MPI4Info10Get_nthkeyEiPc	0000000000000000 .text._ZNK3MPI4Info10Get_nthkeyEiPc
0000000000000000 l    d  .text._ZNK3MPI4Info12Get_valuelenEPKcRi	0000000000000000 .text._ZNK3MPI4Info12Get_valuelenEPKcRi
0000000000000000 l    d  .text._ZN3MPI4Info3SetEPKcS2_	0000000000000000 .text._ZN3MPI4Info3SetEPKcS2_
0000000000000000 l    d  .text._ZNK3MPI3Win14Get_errhandlerEv	0000000000000000 .text._ZNK3MPI3Win14Get_errhandlerEv
0000000000000000 l    d  .text._ZNK3MPI3Win14Set_errhandlerERKNS_10ErrhandlerE	0000000000000000 .text._ZNK3MPI3Win14Set_errhandlerERKNS_10ErrhandlerE
0000000000000000 l    d  .text._ZNK3MPI3Win10AccumulateEPKviRKNS_8DatatypeEiliS5_RKNS_2OpE	0000000000000000 .text._ZNK3MPI3Win10AccumulateEPKviRKNS_8DatatypeEiliS5_RKNS_2OpE
0000000000000000 l    d  .text._ZNK3MPI3Win8CompleteEv	0000000000000000 .text._ZNK3MPI3Win8CompleteEv
0000000000000000 l    d  .text._ZNK3MPI3Win5FenceEi	0000000000000000 .text._ZNK3MPI3Win5FenceEi
0000000000000000 l    d  .text._ZNK3MPI3Win3GetEPKviRKNS_8DatatypeEiliS5_	0000000000000000 .text._ZNK3MPI3Win3GetEPKviRKNS_8DatatypeEiliS5_
0000000000000000 l    d  .text._ZNK3MPI3Win9Get_groupEv	0000000000000000 .text._ZNK3MPI3Win9Get_groupEv
0000000000000000 l    d  .text._ZNK3MPI3Win4LockEiii	0000000000000000 .text._ZNK3MPI3Win4LockEiii
0000000000000000 l    d  .text._ZNK3MPI3Win4PostERKNS_5GroupEi	0000000000000000 .text._ZNK3MPI3Win4PostERKNS_5GroupEi
0000000000000000 l    d  .text._ZNK3MPI3Win3PutEPKviRKNS_8DatatypeEiliS5_	0000000000000000 .text._ZNK3MPI3Win3PutEPKviRKNS_8DatatypeEiliS5_
0000000000000000 l    d  .text._ZNK3MPI3Win5StartERKNS_5GroupEi	0000000000000000 .text._ZNK3MPI3Win5StartERKNS_5GroupEi
0000000000000000 l    d  .text._ZNK3MPI3Win4TestEv	0000000000000000 .text._ZNK3MPI3Win4TestEv
0000000000000000 l    d  .text._ZNK3MPI3Win6UnlockEi	0000000000000000 .text._ZNK3MPI3Win6UnlockEi
0000000000000000 l    d  .text._ZNK3MPI3Win4WaitEv	0000000000000000 .text._ZNK3MPI3Win4WaitEv
0000000000000000 l    d  .text._ZNK3MPI3Win15Call_errhandlerEi	0000000000000000 .text._ZNK3MPI3Win15Call_errhandlerEi
0000000000000000 l    d  .text._ZN3MPI3Win11Delete_attrEi	0000000000000000 .text._ZN3MPI3Win11Delete_attrEi
0000000000000000 l    d  .text._ZNK3MPI3Win8Get_nameEPcRi	0000000000000000 .text._ZNK3MPI3Win8Get_nameEPcRi
0000000000000000 l    d  .text._ZN3MPI3Win8Set_attrEiPKv	0000000000000000 .text._ZN3MPI3Win8Set_attrEiPKv
0000000000000000 l    d  .text._ZN3MPI3Win8Set_nameEPKc	0000000000000000 .text._ZN3MPI3Win8Set_nameEPKc
0000000000000000 l    d  .text._ZNSt12__shared_ptrINSt12experimental10filesystem2v17__cxx114_DirELN9__gnu_cxx12_Lock_policyE2EEC2ERKS7_	0000000000000000 .text._ZNSt12__shared_ptrINSt12experimental10filesystem2v17__cxx114_DirELN9__gnu_cxx12_Lock_policyE2EEC2ERKS7_
0000000000000000 l    d  .text._ZNSt10shared_ptrINSt12experimental10filesystem2v17__cxx114_DirEEC2ERKS5_	0000000000000000 .text._ZNSt10shared_ptrINSt12experimental10filesystem2v17__cxx114_DirEEC2ERKS5_
0000000000000000 l    d  .text._ZNSt12experimental10filesystem2v17__cxx1118directory_iteratorC2ERKS3_	0000000000000000 .text._ZNSt12experimental10filesystem2v17__cxx1118directory_iteratorC2ERKS3_
0000000000000000 l    d  .gcc_except_table	0000000000000000 .gcc_except_table
0000000000000000 l    d  .text._ZN9__gnu_cxx11char_traitsIcE6lengthEPKc	0000000000000000 .text._ZN9__gnu_cxx11char_traitsIcE6lengthEPKc
0000000000000000 l    d  .text._ZN9__gnu_cxx11char_traitsIcE2eqERKcS3_	0000000000000000 .text._ZN9__gnu_cxx11char_traitsIcE2eqERKcS3_
0000000000000000 l    d  .text._ZNSt7__cxx1112basic_stringIcSt11char_traitsIcESaIcEE12_Alloc_hiderD2Ev	0000000000000000 .text._ZNSt7__cxx1112basic_stringIcSt11char_traitsIcESaIcEE12_Alloc_hiderD2Ev
0000000000000000 l    d  .text._ZNSt7__cxx1112basic_stringIcSt11char_traitsIcESaIcEED2Ev	0000000000000000 .text._ZNSt7__cxx1112basic_stringIcSt11char_traitsIcESaIcEED2Ev
0000000000000000 l    d  .text._ZNKSt7__cxx1112basic_stringIcSt11char_traitsIcESaIcEE6lengthEv	0000000000000000 .text._ZNKSt7__cxx1112basic_stringIcSt11char_traitsIcESaIcEE6lengthEv
0000000000000000 l    d  .text._ZSt3maxImERKT_S2_S2_	0000000000000000 .text._ZSt3maxImERKT_S2_S2_
0000000000000000 l    d  .text._ZNSt6vectorINSt12experimental10filesystem2v17__cxx114path5_CmptESaIS5_EED2Ev	0000000000000000 .text._ZNSt6vectorINSt12experimental10filesystem2v17__cxx114path5_CmptESaIS5_EED2Ev
0000000000000000 l    d  .text._ZNSt7__cxx1112basic_stringIcSt11char_traitsIcESaIcEEC2Ev	0000000000000000 .text._ZNSt7__cxx1112basic_stringIcSt11char_traitsIcESaIcEEC2Ev
0000000000000000 l    d  .text._ZNSt6vectorINSt12experimental10filesystem2v17__cxx114path5_CmptESaIS5_EEC2Ev	0000000000000000 .text._ZNSt6vectorINSt12experimental10filesystem2v17__cxx114path5_CmptESaIS5_EEC2Ev
0000000000000000 l    d  .text._ZNSt7__cxx1112basic_stringIcSt11char_traitsIcESaIcEEC2EOS4_	0000000000000000 .text._ZNSt7__cxx1112basic_stringIcSt11char_traitsIcESaIcEEC2EOS4_
0000000000000000 l    d  .text._ZNSt7__cxx1112basic_stringIcSt11char_traitsIcESaIcEEC2ERKS4_	0000000000000000 .text._ZNSt7__cxx1112basic_stringIcSt11char_traitsIcESaIcEEC2ERKS4_
0000000000000000 l    d  .text._ZNSt7__cxx1112basic_stringIcSt11char_traitsIcESaIcEEC2EPKcRKS3_	0000000000000000 .text._ZNSt7__cxx1112basic_stringIcSt11char_traitsIcESaIcEEC2EPKcRKS3_
0000000000000000 l    d  .text._ZNSt7__cxx1112basic_stringIcSt11char_traitsIcESaIcEE6appendEPKcm	0000000000000000 .text._ZNSt7__cxx1112basic_stringIcSt11char_traitsIcESaIcEE6appendEPKcm
0000000000000000 l    d  .text._ZNKSt12experimental10filesystem2v17__cxx114path6stringIcSt11char_traitsIcESaIcEEENSt7__cxx1112basic_stringIT_T0_T1_EERKSC_	0000000000000000 .text._ZNKSt12experimental10filesystem2v17__cxx114path6stringIcSt11char_traitsIcESaIcEEENSt7__cxx1112basic_stringIT_T0_T1_EERKSC_
0000000000000000 l    d  .text._ZNKSt7__cxx1112basic_stringIcSt11char_traitsIcESaIcEE6substrEmm	0000000000000000 .text._ZNKSt7__cxx1112basic_stringIcSt11char_traitsIcESaIcEE6substrEmm
0000000000000000 l    d  .text._ZNSt14__shared_countILN9__gnu_cxx12_Lock_policyE2EED2Ev	0000000000000000 .text._ZNSt14__shared_countILN9__gnu_cxx12_Lock_policyE2EED2Ev
0000000000000000 l    d  .text._ZSt4moveIRSt10shared_ptrINSt12experimental10filesystem2v17__cxx114_DirEEEONSt16remove_referenceIT_E4typeEOS9_	0000000000000000 .text._ZSt4moveIRSt10shared_ptrINSt12experimental10filesystem2v17__cxx114_DirEEEONSt16remove_referenceIT_E4typeEOS9_
0000000000000000 l    d  .text._ZNSt10shared_ptrINSt12experimental10filesystem2v17__cxx114_DirEEC2EOS5_	0000000000000000 .text._ZNSt10shared_ptrINSt12experimental10filesystem2v17__cxx114_DirEEC2EOS5_
0000000000000000 l    d  .text._ZNSt12__shared_ptrINSt12experimental10filesystem2v17__cxx114_DirELN9__gnu_cxx12_Lock_policyE2EEC2Ev	0000000000000000 .text._ZNSt12__shared_ptrINSt12experimental10filesystem2v17__cxx114_DirELN9__gnu_cxx12_Lock_policyE2EEC2Ev
0000000000000000 l    d  .text._ZNKSt12__shared_ptrINSt12experimental10filesystem2v17__cxx114_DirELN9__gnu_cxx12_Lock_policyE2EE12owner_beforeIS4_EEbRKS_IT_LS6_2EE	0000000000000000 .text._ZNKSt12__shared_ptrINSt12experimental10filesystem2v17__cxx114_DirELN9__gnu_cxx12_Lock_policyE2EE12owner_beforeIS4_EEbRKS_IT_LS6_2EE
0000000000000000 l    d  .text._ZNSaINSt7__cxx1112basic_stringIcSt11char_traitsIcESaIcEEEEC2Ev	0000000000000000 .text._ZNSaINSt7__cxx1112basic_stringIcSt11char_traitsIcESaIcEEEEC2Ev
0000000000000000 l    d  .text._ZNSaINSt7__cxx1112basic_stringIcSt11char_traitsIcESaIcEEEED2Ev	0000000000000000 .text._ZNSaINSt7__cxx1112basic_stringIcSt11char_traitsIcESaIcEEEED2Ev
0000000000000000 l    d  .text._ZNKSt16initializer_listINSt7__cxx1112basic_stringIcSt11char_traitsIcESaIcEEEE5beginEv	0000000000000000 .text._ZNKSt16initializer_listINSt7__cxx1112basic_stringIcSt11char_traitsIcESaIcEEEE5beginEv
0000000000000000 l    d  .text._ZNKSt16initializer_listINSt7__cxx1112basic_stringIcSt11char_traitsIcESaIcEEEE3endEv	0000000000000000 .text._ZNKSt16initializer_listINSt7__cxx1112basic_stringIcSt11char_traitsIcESaIcEEEE3endEv
0000000000000000 l    d  .text._ZNSt6vectorINSt7__cxx1112basic_stringIcSt11char_traitsIcESaIcEEESaIS5_EEC2ESt16initializer_listIS5_ERKS6_	0000000000000000 .text._ZNSt6vectorINSt7__cxx1112basic_stringIcSt11char_traitsIcESaIcEEESaIS5_EEC2ESt16initializer_listIS5_ERKS6_
0000000000000000 l    d  .text._ZNSt6vectorINSt7__cxx1112basic_stringIcSt11char_traitsIcESaIcEEESaIS5_EED2Ev	0000000000000000 .text._ZNSt6vectorINSt7__cxx1112basic_stringIcSt11char_traitsIcESaIcEEESaIS5_EED2Ev
0000000000000000 l    d  .text._ZNSaIiEC2Ev	0000000000000000 .text._ZNSaIiEC2Ev
0000000000000000 l    d  .text._ZNSaIiED2Ev	0000000000000000 .text._ZNSaIiED2Ev
0000000000000000 l    d  .text._ZNKSt16initializer_listIiE5beginEv	0000000000000000 .text._ZNKSt16initializer_listIiE5beginEv
0000000000000000 l    d  .text._ZNKSt16initializer_listIiE3endEv	0000000000000000 .text._ZNKSt16initializer_listIiE3endEv
0000000000000000 l    d  .text._ZNSt6vectorIiSaIiEEC2ESt16initializer_listIiERKS0_	0000000000000000 .text._ZNSt6vectorIiSaIiEEC2ESt16initializer_listIiERKS0_
0000000000000000 l    d  .text._ZNSt6vectorIPdSaIS0_EEC2Ev	0000000000000000 .text._ZNSt6vectorIPdSaIS0_EEC2Ev
0000000000000000 l    d  .text._ZNSt6vectorIPiSaIS0_EEC2Ev	0000000000000000 .text._ZNSt6vectorIPiSaIS0_EEC2Ev
0000000000000000 l    d  .text._ZNSt6vectorIiSaIiEEC2Ev	0000000000000000 .text._ZNSt6vectorIiSaIiEEC2Ev
0000000000000000 l    d  .text._ZNSt6vectorIPdSaIS0_EE9push_backERKS0_	0000000000000000 .text._ZNSt6vectorIPdSaIS0_EE9push_backERKS0_
0000000000000000 l    d  .text._ZNSt6vectorIPiSaIS0_EE9push_backERKS0_	0000000000000000 .text._ZNSt6vectorIPiSaIS0_EE9push_backERKS0_
0000000000000000 l    d  .text._ZNSt6vectorIdSaIdEEC2Ev	0000000000000000 .text._ZNSt6vectorIdSaIdEEC2Ev
0000000000000000 l    d  .text._ZNSt6vectorIdSaIdEED2Ev	0000000000000000 .text._ZNSt6vectorIdSaIdEED2Ev
0000000000000000 l    d  .text._ZNSt6vectorINSt7__cxx1112basic_stringIcSt11char_traitsIcESaIcEEESaIS5_EEixEm	0000000000000000 .text._ZNSt6vectorINSt7__cxx1112basic_stringIcSt11char_traitsIcESaIcEEESaIS5_EEixEm
0000000000000000 l    d  .text._ZStplIcSt11char_traitsIcESaIcEENSt7__cxx1112basic_stringIT_T0_T1_EEPKS5_RKS8_	0000000000000000 .text._ZStplIcSt11char_traitsIcESaIcEENSt7__cxx1112basic_stringIT_T0_T1_EEPKS5_RKS8_
0000000000000000 l    d  .text._ZNSt14__shared_countILN9__gnu_cxx12_Lock_policyE2EEC2ERKS2_	0000000000000000 .text._ZNSt14__shared_countILN9__gnu_cxx12_Lock_policyE2EEC2ERKS2_
0000000000000000 l    d  .text._ZNSt12experimental10filesystem2v17__cxx114pathC2IA7_cS3_EERKT_	0000000000000000 .text._ZNSt12experimental10filesystem2v17__cxx114pathC2IA7_cS3_EERKT_
0000000000000000 l    d  .text._ZNSt6vectorIiSaIiEED2Ev	0000000000000000 .text._ZNSt6vectorIiSaIiEED2Ev
0000000000000000 l    d  .text._ZNSt6vectorIiSaIiEE9push_backERKi	0000000000000000 .text._ZNSt6vectorIiSaIiEE9push_backERKi
0000000000000000 l    d  .text._ZNKSt6vectorIiSaIiEE4sizeEv	0000000000000000 .text._ZNKSt6vectorIiSaIiEE4sizeEv
0000000000000000 l    d  .text._ZSt4moveIRPiEONSt16remove_referenceIT_E4typeEOS3_	0000000000000000 .text._ZSt4moveIRPiEONSt16remove_referenceIT_E4typeEOS3_
0000000000000000 l    d  .text._ZNSt6vectorIPiSaIS0_EE9push_backEOS0_	0000000000000000 .text._ZNSt6vectorIPiSaIS0_EE9push_backEOS0_
0000000000000000 l    d  .text._ZNSt6vectorIPiSaIS0_EEixEm	0000000000000000 .text._ZNSt6vectorIPiSaIS0_EEixEm
0000000000000000 l    d  .text._ZNSt6vectorIiSaIiEEixEm	0000000000000000 .text._ZNSt6vectorIiSaIiEEixEm
0000000000000000 l    d  .text._ZSt4moveIRiEONSt16remove_referenceIT_E4typeEOS2_	0000000000000000 .text._ZSt4moveIRiEONSt16remove_referenceIT_E4typeEOS2_
0000000000000000 l    d  .text._ZNSt6vectorIiSaIiEE9push_backEOi	0000000000000000 .text._ZNSt6vectorIiSaIiEE9push_backEOi
0000000000000000 l    d  .text._ZNSt12experimental10filesystem2v17__cxx11lsIcSt11char_traitsIcEEERSt13basic_ostreamIT_T0_ESA_RKNS2_4pathE	0000000000000000 .text._ZNSt12experimental10filesystem2v17__cxx11lsIcSt11char_traitsIcEEERSt13basic_ostreamIT_T0_ESA_RKNS2_4pathE
0000000000000000 l    d  .text._ZNSt12experimental10filesystem2v17__cxx114pathC2IA4_cS3_EERKT_	0000000000000000 .text._ZNSt12experimental10filesystem2v17__cxx114pathC2IA4_cS3_EERKT_
0000000000000000 l    d  .text._ZNSt6vectorIdSaIdEE9push_backERKd	0000000000000000 .text._ZNSt6vectorIdSaIdEE9push_backERKd
0000000000000000 l    d  .text._ZNSt12experimental10filesystem2v17__cxx114pathC2IA8_cS3_EERKT_	0000000000000000 .text._ZNSt12experimental10filesystem2v17__cxx114pathC2IA8_cS3_EERKT_
0000000000000000 l    d  .text._ZNKSt6vectorIdSaIdEE4sizeEv	0000000000000000 .text._ZNKSt6vectorIdSaIdEE4sizeEv
0000000000000000 l    d  .text._ZSt4moveIRPdEONSt16remove_referenceIT_E4typeEOS3_	0000000000000000 .text._ZSt4moveIRPdEONSt16remove_referenceIT_E4typeEOS3_
0000000000000000 l    d  .text._ZNSt6vectorIPdSaIS0_EE9push_backEOS0_	0000000000000000 .text._ZNSt6vectorIPdSaIS0_EE9push_backEOS0_
0000000000000000 l    d  .text._ZNSt6vectorIPdSaIS0_EEixEm	0000000000000000 .text._ZNSt6vectorIPdSaIS0_EEixEm
0000000000000000 l    d  .text._ZNSt6vectorIdSaIdEEixEm	0000000000000000 .text._ZNSt6vectorIdSaIdEEixEm
0000000000000000 l    d  .text._ZNSt12experimental10filesystem2v17__cxx114pathC2IA12_cS3_EERKT_	0000000000000000 .text._ZNSt12experimental10filesystem2v17__cxx114pathC2IA12_cS3_EERKT_
0000000000000000 l    d  .text._ZNSt6vectorIdSaIdEE5clearEv	0000000000000000 .text._ZNSt6vectorIdSaIdEE5clearEv
0000000000000000 l    d  .text._ZSt3minIiERKT_S2_S2_	0000000000000000 .text._ZSt3minIiERKT_S2_S2_
0000000000000000 l    d  .text._ZNKSt7__cxx1112basic_stringIcSt11char_traitsIcESaIcEE7_M_dataEv	0000000000000000 .text._ZNKSt7__cxx1112basic_stringIcSt11char_traitsIcESaIcEE7_M_dataEv
0000000000000000 l    d  .text._ZNSt7__cxx1112basic_stringIcSt11char_traitsIcESaIcEE10_M_disposeEv	0000000000000000 .text._ZNSt7__cxx1112basic_stringIcSt11char_traitsIcESaIcEE10_M_disposeEv
0000000000000000 l    d  .text._ZNSt7__cxx1112basic_stringIcSt11char_traitsIcESaIcEE13_M_local_dataEv	0000000000000000 .text._ZNSt7__cxx1112basic_stringIcSt11char_traitsIcESaIcEE13_M_local_dataEv
0000000000000000 l    d  .text._ZNSt7__cxx1112basic_stringIcSt11char_traitsIcESaIcEE12_Alloc_hiderC2EPcRKS3_	0000000000000000 .text._ZNSt7__cxx1112basic_stringIcSt11char_traitsIcESaIcEE12_Alloc_hiderC2EPcRKS3_
0000000000000000 l    d  .text._ZNSt7__cxx1112basic_stringIcSt11char_traitsIcESaIcEE12_M_constructIPKcEEvT_S8_	0000000000000000 .text._ZNSt7__cxx1112basic_stringIcSt11char_traitsIcESaIcEE12_M_constructIPKcEEvT_S8_
0000000000000000 l    d  .text._ZNKSt7__cxx1112basic_stringIcSt11char_traitsIcESaIcEE4sizeEv	0000000000000000 .text._ZNKSt7__cxx1112basic_stringIcSt11char_traitsIcESaIcEE4sizeEv
0000000000000000 l    d  .text._ZNKSt7__cxx1112basic_stringIcSt11char_traitsIcESaIcEE8capacityEv	0000000000000000 .text._ZNKSt7__cxx1112basic_stringIcSt11char_traitsIcESaIcEE8capacityEv
0000000000000000 l    d  .text._ZNSt7__cxx1112basic_stringIcSt11char_traitsIcESaIcEE6appendERKS4_	0000000000000000 .text._ZNSt7__cxx1112basic_stringIcSt11char_traitsIcESaIcEE6appendERKS4_
0000000000000000 l    d  .text._ZNSt12_Vector_baseINSt12experimental10filesystem2v17__cxx114path5_CmptESaIS5_EE12_Vector_implD2Ev	0000000000000000 .text._ZNSt12_Vector_baseINSt12experimental10filesystem2v17__cxx114path5_CmptESaIS5_EE12_Vector_implD2Ev
0000000000000000 l    d  .text._ZNSt12_Vector_baseINSt12experimental10filesystem2v17__cxx114path5_CmptESaIS5_EED2Ev	0000000000000000 .text._ZNSt12_Vector_baseINSt12experimental10filesystem2v17__cxx114path5_CmptESaIS5_EED2Ev
0000000000000000 l    d  .text._ZNSt12_Vector_baseINSt12experimental10filesystem2v17__cxx114path5_CmptESaIS5_EE19_M_get_Tp_allocatorEv	0000000000000000 .text._ZNSt12_Vector_baseINSt12experimental10filesystem2v17__cxx114path5_CmptESaIS5_EE19_M_get_Tp_allocatorEv
0000000000000000 l    d  .text._ZSt8_DestroyIPNSt12experimental10filesystem2v17__cxx114path5_CmptES5_EvT_S7_RSaIT0_E	0000000000000000 .text._ZSt8_DestroyIPNSt12experimental10filesystem2v17__cxx114path5_CmptES5_EvT_S7_RSaIT0_E
0000000000000000 l    d  .text._ZSt4moveIRSaIcEEONSt16remove_referenceIT_E4typeEOS3_	0000000000000000 .text._ZSt4moveIRSaIcEEONSt16remove_referenceIT_E4typeEOS3_
0000000000000000 l    d  .text._ZNSt7__cxx1112basic_stringIcSt11char_traitsIcESaIcEE12_Alloc_hiderC2EPcOS3_	0000000000000000 .text._ZNSt7__cxx1112basic_stringIcSt11char_traitsIcESaIcEE12_Alloc_hiderC2EPcOS3_
0000000000000000 l    d  .text._ZNSt7__cxx1112basic_stringIcSt11char_traitsIcESaIcEE13_M_set_lengthEm	0000000000000000 .text._ZNSt7__cxx1112basic_stringIcSt11char_traitsIcESaIcEE13_M_set_lengthEm
0000000000000000 l    d  .text._ZNSt12_Vector_baseINSt12experimental10filesystem2v17__cxx114path5_CmptESaIS5_EEC2Ev	0000000000000000 .text._ZNSt12_Vector_baseINSt12experimental10filesystem2v17__cxx114path5_CmptESaIS5_EEC2Ev
0000000000000000 l    d  .text._ZNSt7__cxx1112basic_stringIcSt11char_traitsIcESaIcEE16_M_get_allocatorEv	0000000000000000 .text._ZNSt7__cxx1112basic_stringIcSt11char_traitsIcESaIcEE16_M_get_allocatorEv
0000000000000000 l    d  .text._ZNKSt7__cxx1112basic_stringIcSt11char_traitsIcESaIcEE11_M_is_localEv	0000000000000000 .text._ZNKSt7__cxx1112basic_stringIcSt11char_traitsIcESaIcEE11_M_is_localEv
0000000000000000 l    d  .text._ZNSt7__cxx1112basic_stringIcSt11char_traitsIcESaIcEE7_M_dataEPc	0000000000000000 .text._ZNSt7__cxx1112basic_stringIcSt11char_traitsIcESaIcEE7_M_dataEPc
0000000000000000 l    d  .text._ZNSt7__cxx1112basic_stringIcSt11char_traitsIcESaIcEE11_M_capacityEm	0000000000000000 .text._ZNSt7__cxx1112basic_stringIcSt11char_traitsIcESaIcEE11_M_capacityEm
0000000000000000 l    d  .text._ZNSt7__cxx1112basic_stringIcSt11char_traitsIcESaIcEE9_M_lengthEm	0000000000000000 .text._ZNSt7__cxx1112basic_stringIcSt11char_traitsIcESaIcEE9_M_lengthEm
0000000000000000 l    d  .text._ZN9__gnu_cxx14__alloc_traitsISaIcEE17_S_select_on_copyERKS1_	0000000000000000 .text._ZN9__gnu_cxx14__alloc_traitsISaIcEE17_S_select_on_copyERKS1_
0000000000000000 l    d  .text._ZNKSt7__cxx1112basic_stringIcSt11char_traitsIcESaIcEE16_M_get_allocatorEv	0000000000000000 .text._ZNKSt7__cxx1112basic_stringIcSt11char_traitsIcESaIcEE16_M_get_allocatorEv
0000000000000000 l    d  .text._ZNSt7__cxx1112basic_stringIcSt11char_traitsIcESaIcEE12_M_constructIPcEEvT_S7_	0000000000000000 .text._ZNSt7__cxx1112basic_stringIcSt11char_traitsIcESaIcEE12_M_constructIPcEEvT_S7_
0000000000000000 l    d  .text._ZNSaINSt12experimental10filesystem2v17__cxx114path5_CmptEED2Ev	0000000000000000 .text._ZNSaINSt12experimental10filesystem2v17__cxx114path5_CmptEED2Ev
0000000000000000 l    d  .text._ZNSt7__cxx1112basic_stringIcSt11char_traitsIcESaIcEE10_M_destroyEm	0000000000000000 .text._ZNSt7__cxx1112basic_stringIcSt11char_traitsIcESaIcEE10_M_destroyEm
0000000000000000 l    d  .text._ZNSt7__cxx1112basic_stringIcSt11char_traitsIcESaIcEE7_S_copyEPcPKcm	0000000000000000 .text._ZNSt7__cxx1112basic_stringIcSt11char_traitsIcESaIcEE7_S_copyEPcPKcm
0000000000000000 l    d  .text._ZNKSt7__cxx1112basic_stringIcSt11char_traitsIcESaIcEE15_M_check_lengthEmmPKc	0000000000000000 .text._ZNKSt7__cxx1112basic_stringIcSt11char_traitsIcESaIcEE15_M_check_lengthEmmPKc
0000000000000000 l    d  .text._ZNSt7__cxx1112basic_stringIcSt11char_traitsIcESaIcEE9_M_appendEPKcm	0000000000000000 .text._ZNSt7__cxx1112basic_stringIcSt11char_traitsIcESaIcEE9_M_appendEPKcm
0000000000000000 l    d  .text._ZNKSt7__cxx1112basic_stringIcSt11char_traitsIcESaIcEE5beginEv	0000000000000000 .text._ZNKSt7__cxx1112basic_stringIcSt11char_traitsIcESaIcEE5beginEv
0000000000000000 l    d  .text._ZNKSt7__cxx1112basic_stringIcSt11char_traitsIcESaIcEE3endEv	0000000000000000 .text._ZNKSt7__cxx1112basic_stringIcSt11char_traitsIcESaIcEE3endEv
0000000000000000 l    d  .text._ZNSt7__cxx1112basic_stringIcSt11char_traitsIcESaIcEEC2IN9__gnu_cxx17__normal_iteratorIPKcS4_EEvEET_SB_RKS3_	0000000000000000 .text._ZNSt7__cxx1112basic_stringIcSt11char_traitsIcESaIcEEC2IN9__gnu_cxx17__normal_iteratorIPKcS4_EEvEET_SB_RKS3_
0000000000000000 l    d  .text._ZNSt12experimental10filesystem2v17__cxx114path14_S_range_beginIPKcEET_S7_	0000000000000000 .text._ZNSt12experimental10filesystem2v17__cxx114path14_S_range_beginIPKcEET_S7_
0000000000000000 l    d  .text._ZNSt12experimental10filesystem2v17__cxx114path12_S_range_endIPKcEENS3_17__null_terminatedET_	0000000000000000 .text._ZNSt12experimental10filesystem2v17__cxx114path12_S_range_endIPKcEENS3_17__null_terminatedET_
0000000000000000 l    d  .text._ZNKSt7__cxx1112basic_stringIcSt11char_traitsIcESaIcEE8_M_checkEmPKc	0000000000000000 .text._ZNKSt7__cxx1112basic_stringIcSt11char_traitsIcESaIcEE8_M_checkEmPKc
0000000000000000 l    d  .text._ZNSt7__cxx1112basic_stringIcSt11char_traitsIcESaIcEEC2ERKS4_mm	0000000000000000 .text._ZNSt7__cxx1112basic_stringIcSt11char_traitsIcESaIcEEC2ERKS4_mm
0000000000000000 l    d  .text._ZNSt16allocator_traitsISaIcEE8allocateERS0_m	0000000000000000 .text._ZNSt16allocator_traitsISaIcEE8allocateERS0_m
0000000000000000 l    d  .text._ZNSt12_Vector_baseINSt12experimental10filesystem2v17__cxx114path5_CmptESaIS5_EE13_M_deallocateEPS5_m	0000000000000000 .text._ZNSt12_Vector_baseINSt12experimental10filesystem2v17__cxx114path5_CmptESaIS5_EE13_M_deallocateEPS5_m
0000000000000000 l    d  .text._ZNSt16_Sp_counted_baseILN9__gnu_cxx12_Lock_policyE2EE10_M_releaseEv	0000000000000000 .text._ZNSt16_Sp_counted_baseILN9__gnu_cxx12_Lock_policyE2EE10_M_releaseEv
0000000000000000 l    d  .text._ZNSt12__shared_ptrINSt12experimental10filesystem2v17__cxx114_DirELN9__gnu_cxx12_Lock_policyE2EEC2EOS7_	0000000000000000 .text._ZNSt12__shared_ptrINSt12experimental10filesystem2v17__cxx114_DirELN9__gnu_cxx12_Lock_policyE2EEC2EOS7_
0000000000000000 l    d  .text._ZNSt14__shared_countILN9__gnu_cxx12_Lock_policyE2EEC2Ev	0000000000000000 .text._ZNSt14__shared_countILN9__gnu_cxx12_Lock_policyE2EEC2Ev
0000000000000000 l    d  .text._ZNKSt14__shared_countILN9__gnu_cxx12_Lock_policyE2EE7_M_lessERKS2_	0000000000000000 .text._ZNKSt14__shared_countILN9__gnu_cxx12_Lock_policyE2EE7_M_lessERKS2_
0000000000000000 l    d  .text._ZN9__gnu_cxx13new_allocatorINSt7__cxx1112basic_stringIcSt11char_traitsIcESaIcEEEEC2Ev	0000000000000000 .text._ZN9__gnu_cxx13new_allocatorINSt7__cxx1112basic_stringIcSt11char_traitsIcESaIcEEEEC2Ev
0000000000000000 l    d  .text._ZN9__gnu_cxx13new_allocatorINSt7__cxx1112basic_stringIcSt11char_traitsIcESaIcEEEED2Ev	0000000000000000 .text._ZN9__gnu_cxx13new_allocatorINSt7__cxx1112basic_stringIcSt11char_traitsIcESaIcEEEED2Ev
0000000000000000 l    d  .text._ZNSt12_Vector_baseINSt7__cxx1112basic_stringIcSt11char_traitsIcESaIcEEESaIS5_EE12_Vector_implD2Ev	0000000000000000 .text._ZNSt12_Vector_baseINSt7__cxx1112basic_stringIcSt11char_traitsIcESaIcEEESaIS5_EE12_Vector_implD2Ev
0000000000000000 l    d  .text._ZNSt12_Vector_baseINSt7__cxx1112basic_stringIcSt11char_traitsIcESaIcEEESaIS5_EEC2ERKS6_	0000000000000000 .text._ZNSt12_Vector_baseINSt7__cxx1112basic_stringIcSt11char_traitsIcESaIcEEESaIS5_EEC2ERKS6_
0000000000000000 l    d  .text._ZNSt12_Vector_baseINSt7__cxx1112basic_stringIcSt11char_traitsIcESaIcEEESaIS5_EED2Ev	0000000000000000 .text._ZNSt12_Vector_baseINSt7__cxx1112basic_stringIcSt11char_traitsIcESaIcEEESaIS5_EED2Ev
0000000000000000 l    d  .text._ZNKSt16initializer_listINSt7__cxx1112basic_stringIcSt11char_traitsIcESaIcEEEE4sizeEv	0000000000000000 .text._ZNKSt16initializer_listINSt7__cxx1112basic_stringIcSt11char_traitsIcESaIcEEEE4sizeEv
0000000000000000 l    d  .text._ZSt19__iterator_categoryIPKNSt7__cxx1112basic_stringIcSt11char_traitsIcESaIcEEEENSt15iterator_traitsIT_E17iterator_categoryERKS9_	0000000000000000 .text._ZSt19__iterator_categoryIPKNSt7__cxx1112basic_stringIcSt11char_traitsIcESaIcEEEENSt15iterator_traitsIT_E17iterator_categoryERKS9_
0000000000000000 l    d  .text._ZSt8distanceIPKNSt7__cxx1112basic_stringIcSt11char_traitsIcESaIcEEEENSt15iterator_traitsIT_E15difference_typeES9_S9_	0000000000000000 .text._ZSt8distanceIPKNSt7__cxx1112basic_stringIcSt11char_traitsIcESaIcEEEENSt15iterator_traitsIT_E15difference_typeES9_S9_
0000000000000000 l    d  .text._ZNSt6vectorINSt7__cxx1112basic_stringIcSt11char_traitsIcESaIcEEESaIS5_EE19_M_range_initializeIPKS5_EEvT_SB_St20forward_iterator_tag	0000000000000000 .text._ZNSt6vectorINSt7__cxx1112basic_stringIcSt11char_traitsIcESaIcEEESaIS5_EE19_M_range_initializeIPKS5_EEvT_SB_St20forward_iterator_tag
0000000000000000 l    d  .text._ZNSt12_Vector_baseINSt7__cxx1112basic_stringIcSt11char_traitsIcESaIcEEESaIS5_EE19_M_get_Tp_allocatorEv	0000000000000000 .text._ZNSt12_Vector_baseINSt7__cxx1112basic_stringIcSt11char_traitsIcESaIcEEESaIS5_EE19_M_get_Tp_allocatorEv
0000000000000000 l    d  .text._ZSt8_DestroyIPNSt7__cxx1112basic_stringIcSt11char_traitsIcESaIcEEES5_EvT_S7_RSaIT0_E	0000000000000000 .text._ZSt8_DestroyIPNSt7__cxx1112basic_stringIcSt11char_traitsIcESaIcEEES5_EvT_S7_RSaIT0_E
0000000000000000 l    d  .text._ZN9__gnu_cxx13new_allocatorIiEC2Ev	0000000000000000 .text._ZN9__gnu_cxx13new_allocatorIiEC2Ev
0000000000000000 l    d  .text._ZN9__gnu_cxx13new_allocatorIiED2Ev	0000000000000000 .text._ZN9__gnu_cxx13new_allocatorIiED2Ev
0000000000000000 l    d  .text._ZNSt12_Vector_baseIiSaIiEE12_Vector_implD2Ev	0000000000000000 .text._ZNSt12_Vector_baseIiSaIiEE12_Vector_implD2Ev
0000000000000000 l    d  .text._ZNSt12_Vector_baseIiSaIiEEC2ERKS0_	0000000000000000 .text._ZNSt12_Vector_baseIiSaIiEEC2ERKS0_
0000000000000000 l    d  .text._ZNSt12_Vector_baseIiSaIiEED2Ev	0000000000000000 .text._ZNSt12_Vector_baseIiSaIiEED2Ev
0000000000000000 l    d  .text._ZNKSt16initializer_listIiE4sizeEv	0000000000000000 .text._ZNKSt16initializer_listIiE4sizeEv
0000000000000000 l    d  .text._ZSt19__iterator_categoryIPKiENSt15iterator_traitsIT_E17iterator_categoryERKS3_	0000000000000000 .text._ZSt19__iterator_categoryIPKiENSt15iterator_traitsIT_E17iterator_categoryERKS3_
0000000000000000 l    d  .text._ZSt8distanceIPKiENSt15iterator_traitsIT_E15difference_typeES3_S3_	0000000000000000 .text._ZSt8distanceIPKiENSt15iterator_traitsIT_E15difference_typeES3_S3_
0000000000000000 l    d  .text._ZNSt6vectorIiSaIiEE19_M_range_initializeIPKiEEvT_S5_St20forward_iterator_tag	0000000000000000 .text._ZNSt6vectorIiSaIiEE19_M_range_initializeIPKiEEvT_S5_St20forward_iterator_tag
0000000000000000 l    d  .text._ZNSt12_Vector_baseIPdSaIS0_EE12_Vector_implD2Ev	0000000000000000 .text._ZNSt12_Vector_baseIPdSaIS0_EE12_Vector_implD2Ev
0000000000000000 l    d  .text._ZNSt12_Vector_baseIPdSaIS0_EEC2Ev	0000000000000000 .text._ZNSt12_Vector_baseIPdSaIS0_EEC2Ev
0000000000000000 l    d  .text._ZNSt12_Vector_baseIPdSaIS0_EED2Ev	0000000000000000 .text._ZNSt12_Vector_baseIPdSaIS0_EED2Ev
0000000000000000 l    d  .text._ZNSt12_Vector_baseIPiSaIS0_EE12_Vector_implD2Ev	0000000000000000 .text._ZNSt12_Vector_baseIPiSaIS0_EE12_Vector_implD2Ev
0000000000000000 l    d  .text._ZNSt12_Vector_baseIPiSaIS0_EEC2Ev	0000000000000000 .text._ZNSt12_Vector_baseIPiSaIS0_EEC2Ev
0000000000000000 l    d  .text._ZNSt12_Vector_baseIPiSaIS0_EED2Ev	0000000000000000 .text._ZNSt12_Vector_baseIPiSaIS0_EED2Ev
0000000000000000 l    d  .text._ZNSt12_Vector_baseIiSaIiEEC2Ev	0000000000000000 .text._ZNSt12_Vector_baseIiSaIiEEC2Ev
0000000000000000 l    d  .text._ZSt7forwardIRKPdEOT_RNSt16remove_referenceIS3_E4typeE	0000000000000000 .text._ZSt7forwardIRKPdEOT_RNSt16remove_referenceIS3_E4typeE
0000000000000000 l    d  .text._ZNSt16allocator_traitsISaIPdEE9constructIS0_JRKS0_EEEvRS1_PT_DpOT0_	0000000000000000 .text._ZNSt16allocator_traitsISaIPdEE9constructIS0_JRKS0_EEEvRS1_PT_DpOT0_
0000000000000000 l    d  .text._ZNSt6vectorIPdSaIS0_EE3endEv	0000000000000000 .text._ZNSt6vectorIPdSaIS0_EE3endEv
0000000000000000 l    d  .text._ZNSt6vectorIPdSaIS0_EE17_M_realloc_insertIJRKS0_EEEvN9__gnu_cxx17__normal_iteratorIPS0_S2_EEDpOT_	0000000000000000 .text._ZNSt6vectorIPdSaIS0_EE17_M_realloc_insertIJRKS0_EEEvN9__gnu_cxx17__normal_iteratorIPS0_S2_EEDpOT_
0000000000000000 l    d  .text._ZSt7forwardIRKPiEOT_RNSt16remove_referenceIS3_E4typeE	0000000000000000 .text._ZSt7forwardIRKPiEOT_RNSt16remove_referenceIS3_E4typeE
0000000000000000 l    d  .text._ZNSt16allocator_traitsISaIPiEE9constructIS0_JRKS0_EEEvRS1_PT_DpOT0_	0000000000000000 .text._ZNSt16allocator_traitsISaIPiEE9constructIS0_JRKS0_EEEvRS1_PT_DpOT0_
0000000000000000 l    d  .text._ZNSt6vectorIPiSaIS0_EE3endEv	0000000000000000 .text._ZNSt6vectorIPiSaIS0_EE3endEv
0000000000000000 l    d  .text._ZNSt6vectorIPiSaIS0_EE17_M_realloc_insertIJRKS0_EEEvN9__gnu_cxx17__normal_iteratorIPS0_S2_EEDpOT_	0000000000000000 .text._ZNSt6vectorIPiSaIS0_EE17_M_realloc_insertIJRKS0_EEEvN9__gnu_cxx17__normal_iteratorIPS0_S2_EEDpOT_
0000000000000000 l    d  .text._ZNSt12_Vector_baseIdSaIdEE12_Vector_implD2Ev	0000000000000000 .text._ZNSt12_Vector_baseIdSaIdEE12_Vector_implD2Ev
0000000000000000 l    d  .text._ZNSt12_Vector_baseIdSaIdEEC2Ev	0000000000000000 .text._ZNSt12_Vector_baseIdSaIdEEC2Ev
0000000000000000 l    d  .text._ZNSt12_Vector_baseIdSaIdEED2Ev	0000000000000000 .text._ZNSt12_Vector_baseIdSaIdEED2Ev
0000000000000000 l    d  .text._ZNSt12_Vector_baseIdSaIdEE19_M_get_Tp_allocatorEv	0000000000000000 .text._ZNSt12_Vector_baseIdSaIdEE19_M_get_Tp_allocatorEv
0000000000000000 l    d  .text._ZSt8_DestroyIPddEvT_S1_RSaIT0_E	0000000000000000 .text._ZSt8_DestroyIPddEvT_S1_RSaIT0_E
0000000000000000 l    d  .text._ZNSt7__cxx1112basic_stringIcSt11char_traitsIcESaIcEE7reserveEm	0000000000000000 .text._ZNSt7__cxx1112basic_stringIcSt11char_traitsIcESaIcEE7reserveEm
0000000000000000 l    d  .text._ZNSt16_Sp_counted_baseILN9__gnu_cxx12_Lock_policyE2EE15_M_add_ref_copyEv	0000000000000000 .text._ZNSt16_Sp_counted_baseILN9__gnu_cxx12_Lock_policyE2EE15_M_add_ref_copyEv
0000000000000000 l    d  .text._ZNSt12_Vector_baseIiSaIiEE19_M_get_Tp_allocatorEv	0000000000000000 .text._ZNSt12_Vector_baseIiSaIiEE19_M_get_Tp_allocatorEv
0000000000000000 l    d  .text._ZSt8_DestroyIPiiEvT_S1_RSaIT0_E	0000000000000000 .text._ZSt8_DestroyIPiiEvT_S1_RSaIT0_E
0000000000000000 l    d  .text._ZSt7forwardIRKiEOT_RNSt16remove_referenceIS2_E4typeE	0000000000000000 .text._ZSt7forwardIRKiEOT_RNSt16remove_referenceIS2_E4typeE
0000000000000000 l    d  .text._ZNSt16allocator_traitsISaIiEE9constructIiJRKiEEEvRS0_PT_DpOT0_	0000000000000000 .text._ZNSt16allocator_traitsISaIiEE9constructIiJRKiEEEvRS0_PT_DpOT0_
0000000000000000 l    d  .text._ZNSt6vectorIiSaIiEE3endEv	0000000000000000 .text._ZNSt6vectorIiSaIiEE3endEv
0000000000000000 l    d  .text._ZNSt6vectorIiSaIiEE17_M_realloc_insertIJRKiEEEvN9__gnu_cxx17__normal_iteratorIPiS1_EEDpOT_	0000000000000000 .text._ZNSt6vectorIiSaIiEE17_M_realloc_insertIJRKiEEEvN9__gnu_cxx17__normal_iteratorIPiS1_EEDpOT_
0000000000000000 l    d  .text._ZSt7forwardIPiEOT_RNSt16remove_referenceIS1_E4typeE	0000000000000000 .text._ZSt7forwardIPiEOT_RNSt16remove_referenceIS1_E4typeE
0000000000000000 l    d  .text._ZNSt6vectorIPiSaIS0_EE12emplace_backIJS0_EEERS0_DpOT_	0000000000000000 .text._ZNSt6vectorIPiSaIS0_EE12emplace_backIJS0_EEERS0_DpOT_
0000000000000000 l    d  .text._ZNSt6vectorIiSaIiEE12emplace_backIJiEEERiDpOT_	0000000000000000 .text._ZNSt6vectorIiSaIiEE12emplace_backIJiEEERiDpOT_
0000000000000000 l    d  .text._ZNSt8__detail14_Quoted_stringIRNSt7__cxx1112basic_stringIcSt11char_traitsIcESaIcEEEcEC2ES7_cc	0000000000000000 .text._ZNSt8__detail14_Quoted_stringIRNSt7__cxx1112basic_stringIcSt11char_traitsIcESaIcEEEcEC2ES7_cc
0000000000000000 l    d  .text._ZNSt8__detaillsIcSt11char_traitsIcERNSt7__cxx1112basic_stringIcS2_SaIcEEEEERSt13basic_ostreamIT_T0_ESC_RKNS_14_Quoted_stringIT1_S9_EE	0000000000000000 .text._ZNSt8__detaillsIcSt11char_traitsIcERNSt7__cxx1112basic_stringIcS2_SaIcEEEEERSt13basic_ostreamIT_T0_ESC_RKNS_14_Quoted_stringIT1_S9_EE
0000000000000000 l    d  .text._ZSt7forwardIRKdEOT_RNSt16remove_referenceIS2_E4typeE	0000000000000000 .text._ZSt7forwardIRKdEOT_RNSt16remove_referenceIS2_E4typeE
0000000000000000 l    d  .text._ZNSt16allocator_traitsISaIdEE9constructIdJRKdEEEvRS0_PT_DpOT0_	0000000000000000 .text._ZNSt16allocator_traitsISaIdEE9constructIdJRKdEEEvRS0_PT_DpOT0_
0000000000000000 l    d  .text._ZNSt6vectorIdSaIdEE3endEv	0000000000000000 .text._ZNSt6vectorIdSaIdEE3endEv
0000000000000000 l    d  .text._ZNSt6vectorIdSaIdEE17_M_realloc_insertIJRKdEEEvN9__gnu_cxx17__normal_iteratorIPdS1_EEDpOT_	0000000000000000 .text._ZNSt6vectorIdSaIdEE17_M_realloc_insertIJRKdEEEvN9__gnu_cxx17__normal_iteratorIPdS1_EEDpOT_
0000000000000000 l    d  .text._ZSt7forwardIPdEOT_RNSt16remove_referenceIS1_E4typeE	0000000000000000 .text._ZSt7forwardIPdEOT_RNSt16remove_referenceIS1_E4typeE
0000000000000000 l    d  .text._ZNSt6vectorIPdSaIS0_EE12emplace_backIJS0_EEERS0_DpOT_	0000000000000000 .text._ZNSt6vectorIPdSaIS0_EE12emplace_backIJS0_EEERS0_DpOT_
0000000000000000 l    d  .text._ZNSt6vectorIdSaIdEE15_M_erase_at_endEPd	0000000000000000 .text._ZNSt6vectorIdSaIdEE15_M_erase_at_endEPd
0000000000000000 l    d  .text._ZNSt14pointer_traitsIPcE10pointer_toERc	0000000000000000 .text._ZNSt14pointer_traitsIPcE10pointer_toERc
0000000000000000 l    d  .text._ZNSt7__cxx1112basic_stringIcSt11char_traitsIcESaIcEE16_M_construct_auxIPKcEEvT_S8_St12__false_type	0000000000000000 .text._ZNSt7__cxx1112basic_stringIcSt11char_traitsIcESaIcEE16_M_construct_auxIPKcEEvT_S8_St12__false_type
0000000000000000 l    d  .text._ZSt8_DestroyIPNSt12experimental10filesystem2v17__cxx114path5_CmptEEvT_S7_	0000000000000000 .text._ZSt8_DestroyIPNSt12experimental10filesystem2v17__cxx114path5_CmptEEvT_S7_
0000000000000000 l    d  .text._ZNSt12_Vector_baseINSt12experimental10filesystem2v17__cxx114path5_CmptESaIS5_EE12_Vector_implC2Ev	0000000000000000 .text._ZNSt12_Vector_baseINSt12experimental10filesystem2v17__cxx114path5_CmptESaIS5_EE12_Vector_implC2Ev
0000000000000000 l    d  .text._ZNKSt7__cxx1112basic_stringIcSt11char_traitsIcESaIcEE13_M_local_dataEv	0000000000000000 .text._ZNKSt7__cxx1112basic_stringIcSt11char_traitsIcESaIcEE13_M_local_dataEv
0000000000000000 l    d  .text._ZNSt16allocator_traitsISaIcEE37select_on_container_copy_constructionERKS0_	0000000000000000 .text._ZNSt16allocator_traitsISaIcEE37select_on_container_copy_constructionERKS0_
0000000000000000 l    d  .text._ZNSt7__cxx1112basic_stringIcSt11char_traitsIcESaIcEE16_M_construct_auxIPcEEvT_S7_St12__false_type	0000000000000000 .text._ZNSt7__cxx1112basic_stringIcSt11char_traitsIcESaIcEE16_M_construct_auxIPcEEvT_S7_St12__false_type
0000000000000000 l    d  .text._ZNSt7__cxx1112basic_stringIcSt11char_traitsIcESaIcEE9_M_mutateEmmPKcm	0000000000000000 .text._ZNSt7__cxx1112basic_stringIcSt11char_traitsIcESaIcEE9_M_mutateEmmPKcm
0000000000000000 l    d  .text._ZN9__gnu_cxx13new_allocatorINSt12experimental10filesystem2v17__cxx114path5_CmptEED2Ev	0000000000000000 .text._ZN9__gnu_cxx13new_allocatorINSt12experimental10filesystem2v17__cxx114path5_CmptEED2Ev
0000000000000000 l    d  .text._ZNSt16allocator_traitsISaIcEE10deallocateERS0_Pcm	0000000000000000 .text._ZNSt16allocator_traitsISaIcEE10deallocateERS0_Pcm
0000000000000000 l    d  .text._ZNKSt7__cxx1112basic_stringIcSt11char_traitsIcESaIcEE8max_sizeEv	0000000000000000 .text._ZNKSt7__cxx1112basic_stringIcSt11char_traitsIcESaIcEE8max_sizeEv
0000000000000000 l    d  .text._ZN9__gnu_cxx17__normal_iteratorIPKcNSt7__cxx1112basic_stringIcSt11char_traitsIcESaIcEEEEC2ERKS2_	0000000000000000 .text._ZN9__gnu_cxx17__normal_iteratorIPKcNSt7__cxx1112basic_stringIcSt11char_traitsIcESaIcEEEEC2ERKS2_
0000000000000000 l    d  .text._ZNSt7__cxx1112basic_stringIcSt11char_traitsIcESaIcEE12_M_constructIN9__gnu_cxx17__normal_iteratorIPKcS4_EEEEvT_SB_	0000000000000000 .text._ZNSt7__cxx1112basic_stringIcSt11char_traitsIcESaIcEE12_M_constructIN9__gnu_cxx17__normal_iteratorIPKcS4_EEEEvT_SB_
0000000000000000 l    d  .text._ZNKSt7__cxx1112basic_stringIcSt11char_traitsIcESaIcEE8_M_limitEmm	0000000000000000 .text._ZNKSt7__cxx1112basic_stringIcSt11char_traitsIcESaIcEE8_M_limitEmm
0000000000000000 l    d  .text._ZN9__gnu_cxx13new_allocatorIcE8allocateEmPKv	0000000000000000 .text._ZN9__gnu_cxx13new_allocatorIcE8allocateEmPKv
0000000000000000 l    d  .text._ZNSt16allocator_traitsISaINSt12experimental10filesystem2v17__cxx114path5_CmptEEE10deallocateERS6_PS5_m	0000000000000000 .text._ZNSt16allocator_traitsISaINSt12experimental10filesystem2v17__cxx114path5_CmptEEE10deallocateERS6_PS5_m
0000000000000000 l    d  .text._ZNSt14__shared_countILN9__gnu_cxx12_Lock_policyE2EE7_M_swapERS2_	0000000000000000 .text._ZNSt14__shared_countILN9__gnu_cxx12_Lock_policyE2EE7_M_swapERS2_
0000000000000000 l    d  .text._ZNKSt4lessIPSt16_Sp_counted_baseILN9__gnu_cxx12_Lock_policyE2EEEclERKS4_S7_	0000000000000000 .text._ZNKSt4lessIPSt16_Sp_counted_baseILN9__gnu_cxx12_Lock_policyE2EEEclERKS4_S7_
0000000000000000 l    d  .text._ZNSt12_Vector_baseINSt7__cxx1112basic_stringIcSt11char_traitsIcESaIcEEESaIS5_EE12_Vector_implC2ERKS6_	0000000000000000 .text._ZNSt12_Vector_baseINSt7__cxx1112basic_stringIcSt11char_traitsIcESaIcEEESaIS5_EE12_Vector_implC2ERKS6_
0000000000000000 l    d  .text._ZNSt12_Vector_baseINSt7__cxx1112basic_stringIcSt11char_traitsIcESaIcEEESaIS5_EE13_M_deallocateEPS5_m	0000000000000000 .text._ZNSt12_Vector_baseINSt7__cxx1112basic_stringIcSt11char_traitsIcESaIcEEESaIS5_EE13_M_deallocateEPS5_m
0000000000000000 l    d  .text._ZSt10__distanceIPKNSt7__cxx1112basic_stringIcSt11char_traitsIcESaIcEEEENSt15iterator_traitsIT_E15difference_typeES9_S9_St26random_access_iterator_tag	0000000000000000 .text._ZSt10__distanceIPKNSt7__cxx1112basic_stringIcSt11char_traitsIcESaIcEEEENSt15iterator_traitsIT_E15difference_typeES9_S9_St26random_access_iterator_tag
0000000000000000 l    d  .text._ZNSt12_Vector_baseINSt7__cxx1112basic_stringIcSt11char_traitsIcESaIcEEESaIS5_EE11_M_allocateEm	0000000000000000 .text._ZNSt12_Vector_baseINSt7__cxx1112basic_stringIcSt11char_traitsIcESaIcEEESaIS5_EE11_M_allocateEm
0000000000000000 l    d  .text._ZSt22__uninitialized_copy_aIPKNSt7__cxx1112basic_stringIcSt11char_traitsIcESaIcEEEPS5_S5_ET0_T_SA_S9_RSaIT1_E	0000000000000000 .text._ZSt22__uninitialized_copy_aIPKNSt7__cxx1112basic_stringIcSt11char_traitsIcESaIcEEEPS5_S5_ET0_T_SA_S9_RSaIT1_E
0000000000000000 l    d  .text._ZSt8_DestroyIPNSt7__cxx1112basic_stringIcSt11char_traitsIcESaIcEEEEvT_S7_	0000000000000000 .text._ZSt8_DestroyIPNSt7__cxx1112basic_stringIcSt11char_traitsIcESaIcEEEEvT_S7_
0000000000000000 l    d  .text._ZNSt12_Vector_baseIiSaIiEE12_Vector_implC2ERKS0_	0000000000000000 .text._ZNSt12_Vector_baseIiSaIiEE12_Vector_implC2ERKS0_
0000000000000000 l    d  .text._ZNSt12_Vector_baseIiSaIiEE13_M_deallocateEPim	0000000000000000 .text._ZNSt12_Vector_baseIiSaIiEE13_M_deallocateEPim
0000000000000000 l    d  .text._ZSt10__distanceIPKiENSt15iterator_traitsIT_E15difference_typeES3_S3_St26random_access_iterator_tag	0000000000000000 .text._ZSt10__distanceIPKiENSt15iterator_traitsIT_E15difference_typeES3_S3_St26random_access_iterator_tag
0000000000000000 l    d  .text._ZNSt12_Vector_baseIiSaIiEE11_M_allocateEm	0000000000000000 .text._ZNSt12_Vector_baseIiSaIiEE11_M_allocateEm
0000000000000000 l    d  .text._ZSt22__uninitialized_copy_aIPKiPiiET0_T_S4_S3_RSaIT1_E	0000000000000000 .text._ZSt22__uninitialized_copy_aIPKiPiiET0_T_S4_S3_RSaIT1_E
0000000000000000 l    d  .text._ZNSt12_Vector_baseIPdSaIS0_EE12_Vector_implC2Ev	0000000000000000 .text._ZNSt12_Vector_baseIPdSaIS0_EE12_Vector_implC2Ev
0000000000000000 l    d  .text._ZNSaIPdED2Ev	0000000000000000 .text._ZNSaIPdED2Ev
0000000000000000 l    d  .text._ZNSt12_Vector_baseIPdSaIS0_EE13_M_deallocateEPS0_m	0000000000000000 .text._ZNSt12_Vector_baseIPdSaIS0_EE13_M_deallocateEPS0_m
0000000000000000 l    d  .text._ZNSt12_Vector_baseIPiSaIS0_EE12_Vector_implC2Ev	0000000000000000 .text._ZNSt12_Vector_baseIPiSaIS0_EE12_Vector_implC2Ev
0000000000000000 l    d  .text._ZNSaIPiED2Ev	0000000000000000 .text._ZNSaIPiED2Ev
0000000000000000 l    d  .text._ZNSt12_Vector_baseIPiSaIS0_EE13_M_deallocateEPS0_m	0000000000000000 .text._ZNSt12_Vector_baseIPiSaIS0_EE13_M_deallocateEPS0_m
0000000000000000 l    d  .text._ZNSt12_Vector_baseIiSaIiEE12_Vector_implC2Ev	0000000000000000 .text._ZNSt12_Vector_baseIiSaIiEE12_Vector_implC2Ev
0000000000000000 l    d  .text._ZN9__gnu_cxx13new_allocatorIPdE9constructIS1_JRKS1_EEEvPT_DpOT0_	0000000000000000 .text._ZN9__gnu_cxx13new_allocatorIPdE9constructIS1_JRKS1_EEEvPT_DpOT0_
0000000000000000 l    d  .text._ZN9__gnu_cxx17__normal_iteratorIPPdSt6vectorIS1_SaIS1_EEEC2ERKS2_	0000000000000000 .text._ZN9__gnu_cxx17__normal_iteratorIPPdSt6vectorIS1_SaIS1_EEEC2ERKS2_
0000000000000000 l    d  .text._ZNKSt6vectorIPdSaIS0_EE12_M_check_lenEmPKc	0000000000000000 .text._ZNKSt6vectorIPdSaIS0_EE12_M_check_lenEmPKc
0000000000000000 l    d  .text._ZNSt6vectorIPdSaIS0_EE5beginEv	0000000000000000 .text._ZNSt6vectorIPdSaIS0_EE5beginEv
0000000000000000 l    d  .text._ZN9__gnu_cxxmiIPPdSt6vectorIS1_SaIS1_EEEENS_17__normal_iteratorIT_T0_E15difference_typeERKS9_SC_	0000000000000000 .text._ZN9__gnu_cxxmiIPPdSt6vectorIS1_SaIS1_EEEENS_17__normal_iteratorIT_T0_E15difference_typeERKS9_SC_
0000000000000000 l    d  .text._ZNSt12_Vector_baseIPdSaIS0_EE11_M_allocateEm	0000000000000000 .text._ZNSt12_Vector_baseIPdSaIS0_EE11_M_allocateEm
0000000000000000 l    d  .text._ZNK9__gnu_cxx17__normal_iteratorIPPdSt6vectorIS1_SaIS1_EEE4baseEv	0000000000000000 .text._ZNK9__gnu_cxx17__normal_iteratorIPPdSt6vectorIS1_SaIS1_EEE4baseEv
0000000000000000 l    d  .text._ZNSt12_Vector_baseIPdSaIS0_EE19_M_get_Tp_allocatorEv	0000000000000000 .text._ZNSt12_Vector_baseIPdSaIS0_EE19_M_get_Tp_allocatorEv
0000000000000000 l    d  .text._ZSt32__make_move_if_noexcept_iteratorIPdSt13move_iteratorIPS0_EET0_PT_	0000000000000000 .text._ZSt32__make_move_if_noexcept_iteratorIPdSt13move_iteratorIPS0_EET0_PT_
0000000000000000 l    d  .text._ZSt34__uninitialized_move_if_noexcept_aIPPdS1_SaIS0_EET0_T_S4_S3_RT1_	0000000000000000 .text._ZSt34__uninitialized_move_if_noexcept_aIPPdS1_SaIS0_EET0_T_S4_S3_RT1_
0000000000000000 l    d  .text._ZNSt16allocator_traitsISaIPdEE7destroyIS0_EEvRS1_PT_	0000000000000000 .text._ZNSt16allocator_traitsISaIPdEE7destroyIS0_EEvRS1_PT_
0000000000000000 l    d  .text._ZSt8_DestroyIPPdS0_EvT_S2_RSaIT0_E	0000000000000000 .text._ZSt8_DestroyIPPdS0_EvT_S2_RSaIT0_E
0000000000000000 l    d  .text._ZN9__gnu_cxx13new_allocatorIPiE9constructIS1_JRKS1_EEEvPT_DpOT0_	0000000000000000 .text._ZN9__gnu_cxx13new_allocatorIPiE9constructIS1_JRKS1_EEEvPT_DpOT0_
0000000000000000 l    d  .text._ZN9__gnu_cxx17__normal_iteratorIPPiSt6vectorIS1_SaIS1_EEEC2ERKS2_	0000000000000000 .text._ZN9__gnu_cxx17__normal_iteratorIPPiSt6vectorIS1_SaIS1_EEEC2ERKS2_
0000000000000000 l    d  .text._ZNKSt6vectorIPiSaIS0_EE12_M_check_lenEmPKc	0000000000000000 .text._ZNKSt6vectorIPiSaIS0_EE12_M_check_lenEmPKc
0000000000000000 l    d  .text._ZNSt6vectorIPiSaIS0_EE5beginEv	0000000000000000 .text._ZNSt6vectorIPiSaIS0_EE5beginEv
0000000000000000 l    d  .text._ZN9__gnu_cxxmiIPPiSt6vectorIS1_SaIS1_EEEENS_17__normal_iteratorIT_T0_E15difference_typeERKS9_SC_	0000000000000000 .text._ZN9__gnu_cxxmiIPPiSt6vectorIS1_SaIS1_EEEENS_17__normal_iteratorIT_T0_E15difference_typeERKS9_SC_
0000000000000000 l    d  .text._ZNSt12_Vector_baseIPiSaIS0_EE11_M_allocateEm	0000000000000000 .text._ZNSt12_Vector_baseIPiSaIS0_EE11_M_allocateEm
0000000000000000 l    d  .text._ZNK9__gnu_cxx17__normal_iteratorIPPiSt6vectorIS1_SaIS1_EEE4baseEv	0000000000000000 .text._ZNK9__gnu_cxx17__normal_iteratorIPPiSt6vectorIS1_SaIS1_EEE4baseEv
0000000000000000 l    d  .text._ZNSt12_Vector_baseIPiSaIS0_EE19_M_get_Tp_allocatorEv	0000000000000000 .text._ZNSt12_Vector_baseIPiSaIS0_EE19_M_get_Tp_allocatorEv
0000000000000000 l    d  .text._ZSt32__make_move_if_noexcept_iteratorIPiSt13move_iteratorIPS0_EET0_PT_	0000000000000000 .text._ZSt32__make_move_if_noexcept_iteratorIPiSt13move_iteratorIPS0_EET0_PT_
0000000000000000 l    d  .text._ZSt34__uninitialized_move_if_noexcept_aIPPiS1_SaIS0_EET0_T_S4_S3_RT1_	0000000000000000 .text._ZSt34__uninitialized_move_if_noexcept_aIPPiS1_SaIS0_EET0_T_S4_S3_RT1_
0000000000000000 l    d  .text._ZNSt16allocator_traitsISaIPiEE7destroyIS0_EEvRS1_PT_	0000000000000000 .text._ZNSt16allocator_traitsISaIPiEE7destroyIS0_EEvRS1_PT_
0000000000000000 l    d  .text._ZSt8_DestroyIPPiS0_EvT_S2_RSaIT0_E	0000000000000000 .text._ZSt8_DestroyIPPiS0_EvT_S2_RSaIT0_E
0000000000000000 l    d  .text._ZNSt12_Vector_baseIdSaIdEE12_Vector_implC2Ev	0000000000000000 .text._ZNSt12_Vector_baseIdSaIdEE12_Vector_implC2Ev
0000000000000000 l    d  .text._ZNSaIdED2Ev	0000000000000000 .text._ZNSaIdED2Ev
0000000000000000 l    d  .text._ZNSt12_Vector_baseIdSaIdEE13_M_deallocateEPdm	0000000000000000 .text._ZNSt12_Vector_baseIdSaIdEE13_M_deallocateEPdm
0000000000000000 l    d  .text._ZSt8_DestroyIPdEvT_S1_	0000000000000000 .text._ZSt8_DestroyIPdEvT_S1_
0000000000000000 l    d  .text._ZNSt7__cxx1112basic_stringIcSt11char_traitsIcESaIcEE9_M_createERmm	0000000000000000 .text._ZNSt7__cxx1112basic_stringIcSt11char_traitsIcESaIcEE9_M_createERmm
0000000000000000 l    d  .text._ZSt8_DestroyIPiEvT_S1_	0000000000000000 .text._ZSt8_DestroyIPiEvT_S1_
0000000000000000 l    d  .text._ZN9__gnu_cxx13new_allocatorIiE9constructIiJRKiEEEvPT_DpOT0_	0000000000000000 .text._ZN9__gnu_cxx13new_allocatorIiE9constructIiJRKiEEEvPT_DpOT0_
0000000000000000 l    d  .text._ZN9__gnu_cxx17__normal_iteratorIPiSt6vectorIiSaIiEEEC2ERKS1_	0000000000000000 .text._ZN9__gnu_cxx17__normal_iteratorIPiSt6vectorIiSaIiEEEC2ERKS1_
0000000000000000 l    d  .text._ZNKSt6vectorIiSaIiEE12_M_check_lenEmPKc	0000000000000000 .text._ZNKSt6vectorIiSaIiEE12_M_check_lenEmPKc
0000000000000000 l    d  .text._ZNSt6vectorIiSaIiEE5beginEv	0000000000000000 .text._ZNSt6vectorIiSaIiEE5beginEv
0000000000000000 l    d  .text._ZN9__gnu_cxxmiIPiSt6vectorIiSaIiEEEENS_17__normal_iteratorIT_T0_E15difference_typeERKS8_SB_	0000000000000000 .text._ZN9__gnu_cxxmiIPiSt6vectorIiSaIiEEEENS_17__normal_iteratorIT_T0_E15difference_typeERKS8_SB_
0000000000000000 l    d  .text._ZNK9__gnu_cxx17__normal_iteratorIPiSt6vectorIiSaIiEEE4baseEv	0000000000000000 .text._ZNK9__gnu_cxx17__normal_iteratorIPiSt6vectorIiSaIiEEE4baseEv
0000000000000000 l    d  .text._ZSt32__make_move_if_noexcept_iteratorIiSt13move_iteratorIPiEET0_PT_	0000000000000000 .text._ZSt32__make_move_if_noexcept_iteratorIiSt13move_iteratorIPiEET0_PT_
0000000000000000 l    d  .text._ZSt34__uninitialized_move_if_noexcept_aIPiS0_SaIiEET0_T_S3_S2_RT1_	0000000000000000 .text._ZSt34__uninitialized_move_if_noexcept_aIPiS0_SaIiEET0_T_S3_S2_RT1_
0000000000000000 l    d  .text._ZNSt16allocator_traitsISaIiEE7destroyIiEEvRS0_PT_	0000000000000000 .text._ZNSt16allocator_traitsISaIiEE7destroyIiEEvRS0_PT_
0000000000000000 l    d  .text._ZNSt16allocator_traitsISaIPiEE9constructIS0_JS0_EEEvRS1_PT_DpOT0_	0000000000000000 .text._ZNSt16allocator_traitsISaIPiEE9constructIS0_JS0_EEEvRS1_PT_DpOT0_
0000000000000000 l    d  .text._ZNSt6vectorIPiSaIS0_EE17_M_realloc_insertIJS0_EEEvN9__gnu_cxx17__normal_iteratorIPS0_S2_EEDpOT_	0000000000000000 .text._ZNSt6vectorIPiSaIS0_EE17_M_realloc_insertIJS0_EEEvN9__gnu_cxx17__normal_iteratorIPS0_S2_EEDpOT_
0000000000000000 l    d  .text._ZNSt6vectorIPiSaIS0_EE4backEv	0000000000000000 .text._ZNSt6vectorIPiSaIS0_EE4backEv
0000000000000000 l    d  .text._ZNSt16allocator_traitsISaIiEE9constructIiJiEEEvRS0_PT_DpOT0_	0000000000000000 .text._ZNSt16allocator_traitsISaIiEE9constructIiJiEEEvRS0_PT_DpOT0_
0000000000000000 l    d  .text._ZNSt6vectorIiSaIiEE17_M_realloc_insertIJiEEEvN9__gnu_cxx17__normal_iteratorIPiS1_EEDpOT_	0000000000000000 .text._ZNSt6vectorIiSaIiEE17_M_realloc_insertIJiEEEvN9__gnu_cxx17__normal_iteratorIPiS1_EEDpOT_
0000000000000000 l    d  .text._ZNSt6vectorIiSaIiEE4backEv	0000000000000000 .text._ZNSt6vectorIiSaIiEE4backEv
0000000000000000 l    d  .text._ZNSt7__cxx1112basic_stringIcSt11char_traitsIcESaIcEE5beginEv	0000000000000000 .text._ZNSt7__cxx1112basic_stringIcSt11char_traitsIcESaIcEE5beginEv
0000000000000000 l    d  .text._ZNSt7__cxx1112basic_stringIcSt11char_traitsIcESaIcEE3endEv	0000000000000000 .text._ZNSt7__cxx1112basic_stringIcSt11char_traitsIcESaIcEE3endEv
0000000000000000 l    d  .text._ZN9__gnu_cxxneIPcNSt7__cxx1112basic_stringIcSt11char_traitsIcESaIcEEEEEbRKNS_17__normal_iteratorIT_T0_EESD_	0000000000000000 .text._ZN9__gnu_cxxneIPcNSt7__cxx1112basic_stringIcSt11char_traitsIcESaIcEEEEEbRKNS_17__normal_iteratorIT_T0_EESD_
0000000000000000 l    d  .text._ZN9__gnu_cxx17__normal_iteratorIPcNSt7__cxx1112basic_stringIcSt11char_traitsIcESaIcEEEEppEv	0000000000000000 .text._ZN9__gnu_cxx17__normal_iteratorIPcNSt7__cxx1112basic_stringIcSt11char_traitsIcESaIcEEEEppEv
0000000000000000 l    d  .text._ZNK9__gnu_cxx17__normal_iteratorIPcNSt7__cxx1112basic_stringIcSt11char_traitsIcESaIcEEEEdeEv	0000000000000000 .text._ZNK9__gnu_cxx17__normal_iteratorIPcNSt7__cxx1112basic_stringIcSt11char_traitsIcESaIcEEEEdeEv
0000000000000000 l    d  .text._ZN9__gnu_cxx13new_allocatorIdE9constructIdJRKdEEEvPT_DpOT0_	0000000000000000 .text._ZN9__gnu_cxx13new_allocatorIdE9constructIdJRKdEEEvPT_DpOT0_
0000000000000000 l    d  .text._ZN9__gnu_cxx17__normal_iteratorIPdSt6vectorIdSaIdEEEC2ERKS1_	0000000000000000 .text._ZN9__gnu_cxx17__normal_iteratorIPdSt6vectorIdSaIdEEEC2ERKS1_
0000000000000000 l    d  .text._ZNKSt6vectorIdSaIdEE12_M_check_lenEmPKc	0000000000000000 .text._ZNKSt6vectorIdSaIdEE12_M_check_lenEmPKc
0000000000000000 l    d  .text._ZNSt6vectorIdSaIdEE5beginEv	0000000000000000 .text._ZNSt6vectorIdSaIdEE5beginEv
0000000000000000 l    d  .text._ZN9__gnu_cxxmiIPdSt6vectorIdSaIdEEEENS_17__normal_iteratorIT_T0_E15difference_typeERKS8_SB_	0000000000000000 .text._ZN9__gnu_cxxmiIPdSt6vectorIdSaIdEEEENS_17__normal_iteratorIT_T0_E15difference_typeERKS8_SB_
0000000000000000 l    d  .text._ZNSt12_Vector_baseIdSaIdEE11_M_allocateEm	0000000000000000 .text._ZNSt12_Vector_baseIdSaIdEE11_M_allocateEm
0000000000000000 l    d  .text._ZNK9__gnu_cxx17__normal_iteratorIPdSt6vectorIdSaIdEEE4baseEv	0000000000000000 .text._ZNK9__gnu_cxx17__normal_iteratorIPdSt6vectorIdSaIdEEE4baseEv
0000000000000000 l    d  .text._ZSt32__make_move_if_noexcept_iteratorIdSt13move_iteratorIPdEET0_PT_	0000000000000000 .text._ZSt32__make_move_if_noexcept_iteratorIdSt13move_iteratorIPdEET0_PT_
0000000000000000 l    d  .text._ZSt34__uninitialized_move_if_noexcept_aIPdS0_SaIdEET0_T_S3_S2_RT1_	0000000000000000 .text._ZSt34__uninitialized_move_if_noexcept_aIPdS0_SaIdEET0_T_S3_S2_RT1_
0000000000000000 l    d  .text._ZNSt16allocator_traitsISaIdEE7destroyIdEEvRS0_PT_	0000000000000000 .text._ZNSt16allocator_traitsISaIdEE7destroyIdEEvRS0_PT_
0000000000000000 l    d  .text._ZNSt16allocator_traitsISaIPdEE9constructIS0_JS0_EEEvRS1_PT_DpOT0_	0000000000000000 .text._ZNSt16allocator_traitsISaIPdEE9constructIS0_JS0_EEEvRS1_PT_DpOT0_
0000000000000000 l    d  .text._ZNSt6vectorIPdSaIS0_EE17_M_realloc_insertIJS0_EEEvN9__gnu_cxx17__normal_iteratorIPS0_S2_EEDpOT_	0000000000000000 .text._ZNSt6vectorIPdSaIS0_EE17_M_realloc_insertIJS0_EEEvN9__gnu_cxx17__normal_iteratorIPS0_S2_EEDpOT_
0000000000000000 l    d  .text._ZNSt6vectorIPdSaIS0_EE4backEv	0000000000000000 .text._ZNSt6vectorIPdSaIS0_EE4backEv
0000000000000000 l    d  .text._ZSt9addressofIcEPT_RS0_	0000000000000000 .text._ZSt9addressofIcEPT_RS0_
0000000000000000 l    d  .text._ZSt19__iterator_categoryIPKcENSt15iterator_traitsIT_E17iterator_categoryERKS3_	0000000000000000 .text._ZSt19__iterator_categoryIPKcENSt15iterator_traitsIT_E17iterator_categoryERKS3_
0000000000000000 l    d  .text._ZSt8distanceIPKcENSt15iterator_traitsIT_E15difference_typeES3_S3_	0000000000000000 .text._ZSt8distanceIPKcENSt15iterator_traitsIT_E15difference_typeES3_S3_
0000000000000000 l    d  .text._ZNSt7__cxx1112basic_stringIcSt11char_traitsIcESaIcEE12_M_constructIPKcEEvT_S8_St20forward_iterator_tag	0000000000000000 .text._ZNSt7__cxx1112basic_stringIcSt11char_traitsIcESaIcEE12_M_constructIPKcEEvT_S8_St20forward_iterator_tag
0000000000000000 l    d  .text._ZSt11__addressofINSt12experimental10filesystem2v17__cxx114path5_CmptEEPT_RS6_	0000000000000000 .text._ZSt11__addressofINSt12experimental10filesystem2v17__cxx114path5_CmptEEPT_RS6_
0000000000000000 l    d  .text._ZNSt12_Destroy_auxILb0EE9__destroyIPNSt12experimental10filesystem2v17__cxx114path5_CmptEEEvT_S9_	0000000000000000 .text._ZNSt12_Destroy_auxILb0EE9__destroyIPNSt12experimental10filesystem2v17__cxx114path5_CmptEEEvT_S9_
0000000000000000 l    d  .text._ZNSaINSt12experimental10filesystem2v17__cxx114path5_CmptEEC2Ev	0000000000000000 .text._ZNSaINSt12experimental10filesystem2v17__cxx114path5_CmptEEC2Ev
0000000000000000 l    d  .text._ZNSt14pointer_traitsIPKcE10pointer_toERS0_	0000000000000000 .text._ZNSt14pointer_traitsIPKcE10pointer_toERS0_
0000000000000000 l    d  .text._ZSt19__iterator_categoryIPcENSt15iterator_traitsIT_E17iterator_categoryERKS2_	0000000000000000 .text._ZSt19__iterator_categoryIPcENSt15iterator_traitsIT_E17iterator_categoryERKS2_
0000000000000000 l    d  .text._ZSt8distanceIPcENSt15iterator_traitsIT_E15difference_typeES2_S2_	0000000000000000 .text._ZSt8distanceIPcENSt15iterator_traitsIT_E15difference_typeES2_S2_
0000000000000000 l    d  .text._ZNSt7__cxx1112basic_stringIcSt11char_traitsIcESaIcEE12_M_constructIPcEEvT_S7_St20forward_iterator_tag	0000000000000000 .text._ZNSt7__cxx1112basic_stringIcSt11char_traitsIcESaIcEE12_M_constructIPcEEvT_S7_St20forward_iterator_tag
0000000000000000 l    d  .text._ZN9__gnu_cxx13new_allocatorIcE10deallocateEPcm	0000000000000000 .text._ZN9__gnu_cxx13new_allocatorIcE10deallocateEPcm
0000000000000000 l    d  .text._ZNSt16allocator_traitsISaIcEE8max_sizeERKS0_	0000000000000000 .text._ZNSt16allocator_traitsISaIcEE8max_sizeERKS0_
0000000000000000 l    d  .text._ZNSt7__cxx1112basic_stringIcSt11char_traitsIcESaIcEE16_M_construct_auxIN9__gnu_cxx17__normal_iteratorIPKcS4_EEEEvT_SB_St12__false_type	0000000000000000 .text._ZNSt7__cxx1112basic_stringIcSt11char_traitsIcESaIcEE16_M_construct_auxIN9__gnu_cxx17__normal_iteratorIPKcS4_EEEEvT_SB_St12__false_type
0000000000000000 l    d  .text._ZNK9__gnu_cxx13new_allocatorIcE8max_sizeEv	0000000000000000 .text._ZNK9__gnu_cxx13new_allocatorIcE8max_sizeEv
0000000000000000 l    d  .text._ZN9__gnu_cxx13new_allocatorINSt12experimental10filesystem2v17__cxx114path5_CmptEE10deallocateEPS6_m	0000000000000000 .text._ZN9__gnu_cxx13new_allocatorINSt12experimental10filesystem2v17__cxx114path5_CmptEE10deallocateEPS6_m
0000000000000000 l    d  .text._ZNSaINSt7__cxx1112basic_stringIcSt11char_traitsIcESaIcEEEEC2ERKS5_	0000000000000000 .text._ZNSaINSt7__cxx1112basic_stringIcSt11char_traitsIcESaIcEEEEC2ERKS5_
0000000000000000 l    d  .text._ZNSt16allocator_traitsISaINSt7__cxx1112basic_stringIcSt11char_traitsIcESaIcEEEEE10deallocateERS6_PS5_m	0000000000000000 .text._ZNSt16allocator_traitsISaINSt7__cxx1112basic_stringIcSt11char_traitsIcESaIcEEEEE10deallocateERS6_PS5_m
0000000000000000 l    d  .text._ZNSt16allocator_traitsISaINSt7__cxx1112basic_stringIcSt11char_traitsIcESaIcEEEEE8allocateERS6_m	0000000000000000 .text._ZNSt16allocator_traitsISaINSt7__cxx1112basic_stringIcSt11char_traitsIcESaIcEEEEE8allocateERS6_m
0000000000000000 l    d  .text._ZSt18uninitialized_copyIPKNSt7__cxx1112basic_stringIcSt11char_traitsIcESaIcEEEPS5_ET0_T_SA_S9_	0000000000000000 .text._ZSt18uninitialized_copyIPKNSt7__cxx1112basic_stringIcSt11char_traitsIcESaIcEEEPS5_ET0_T_SA_S9_
0000000000000000 l    d  .text._ZSt11__addressofINSt7__cxx1112basic_stringIcSt11char_traitsIcESaIcEEEEPT_RS6_	0000000000000000 .text._ZSt11__addressofINSt7__cxx1112basic_stringIcSt11char_traitsIcESaIcEEEEPT_RS6_
0000000000000000 l    d  .text._ZNSt12_Destroy_auxILb0EE9__destroyIPNSt7__cxx1112basic_stringIcSt11char_traitsIcESaIcEEEEEvT_S9_	0000000000000000 .text._ZNSt12_Destroy_auxILb0EE9__destroyIPNSt7__cxx1112basic_stringIcSt11char_traitsIcESaIcEEEEEvT_S9_
0000000000000000 l    d  .text._ZNSaIiEC2ERKS_	0000000000000000 .text._ZNSaIiEC2ERKS_
0000000000000000 l    d  .text._ZNSt16allocator_traitsISaIiEE10deallocateERS0_Pim	0000000000000000 .text._ZNSt16allocator_traitsISaIiEE10deallocateERS0_Pim
0000000000000000 l    d  .text._ZNSt16allocator_traitsISaIiEE8allocateERS0_m	0000000000000000 .text._ZNSt16allocator_traitsISaIiEE8allocateERS0_m
0000000000000000 l    d  .text._ZSt18uninitialized_copyIPKiPiET0_T_S4_S3_	0000000000000000 .text._ZSt18uninitialized_copyIPKiPiET0_T_S4_S3_
0000000000000000 l    d  .text._ZNSaIPdEC2Ev	0000000000000000 .text._ZNSaIPdEC2Ev
0000000000000000 l    d  .text._ZN9__gnu_cxx13new_allocatorIPdED2Ev	0000000000000000 .text._ZN9__gnu_cxx13new_allocatorIPdED2Ev
0000000000000000 l    d  .text._ZNSt16allocator_traitsISaIPdEE10deallocateERS1_PS0_m	0000000000000000 .text._ZNSt16allocator_traitsISaIPdEE10deallocateERS1_PS0_m
0000000000000000 l    d  .text._ZNSaIPiEC2Ev	0000000000000000 .text._ZNSaIPiEC2Ev
0000000000000000 l    d  .text._ZN9__gnu_cxx13new_allocatorIPiED2Ev	0000000000000000 .text._ZN9__gnu_cxx13new_allocatorIPiED2Ev
0000000000000000 l    d  .text._ZNSt16allocator_traitsISaIPiEE10deallocateERS1_PS0_m	0000000000000000 .text._ZNSt16allocator_traitsISaIPiEE10deallocateERS1_PS0_m
0000000000000000 l    d  .text._ZNKSt6vectorIPdSaIS0_EE8max_sizeEv	0000000000000000 .text._ZNKSt6vectorIPdSaIS0_EE8max_sizeEv
0000000000000000 l    d  .text._ZNKSt6vectorIPdSaIS0_EE4sizeEv	0000000000000000 .text._ZNKSt6vectorIPdSaIS0_EE4sizeEv
0000000000000000 l    d  .text._ZNSt16allocator_traitsISaIPdEE8allocateERS1_m	0000000000000000 .text._ZNSt16allocator_traitsISaIPdEE8allocateERS1_m
0000000000000000 l    d  .text._ZNSt13move_iteratorIPPdEC2ES1_	0000000000000000 .text._ZNSt13move_iteratorIPPdEC2ES1_
0000000000000000 l    d  .text._ZSt22__uninitialized_copy_aISt13move_iteratorIPPdES2_S1_ET0_T_S5_S4_RSaIT1_E	0000000000000000 .text._ZSt22__uninitialized_copy_aISt13move_iteratorIPPdES2_S1_ET0_T_S5_S4_RSaIT1_E
0000000000000000 l    d  .text._ZN9__gnu_cxx13new_allocatorIPdE7destroyIS1_EEvPT_	0000000000000000 .text._ZN9__gnu_cxx13new_allocatorIPdE7destroyIS1_EEvPT_
0000000000000000 l    d  .text._ZSt8_DestroyIPPdEvT_S2_	0000000000000000 .text._ZSt8_DestroyIPPdEvT_S2_
0000000000000000 l    d  .text._ZNKSt6vectorIPiSaIS0_EE8max_sizeEv	0000000000000000 .text._ZNKSt6vectorIPiSaIS0_EE8max_sizeEv
0000000000000000 l    d  .text._ZNKSt6vectorIPiSaIS0_EE4sizeEv	0000000000000000 .text._ZNKSt6vectorIPiSaIS0_EE4sizeEv
0000000000000000 l    d  .text._ZNSt16allocator_traitsISaIPiEE8allocateERS1_m	0000000000000000 .text._ZNSt16allocator_traitsISaIPiEE8allocateERS1_m
0000000000000000 l    d  .text._ZNSt13move_iteratorIPPiEC2ES1_	0000000000000000 .text._ZNSt13move_iteratorIPPiEC2ES1_
0000000000000000 l    d  .text._ZSt22__uninitialized_copy_aISt13move_iteratorIPPiES2_S1_ET0_T_S5_S4_RSaIT1_E	0000000000000000 .text._ZSt22__uninitialized_copy_aISt13move_iteratorIPPiES2_S1_ET0_T_S5_S4_RSaIT1_E
0000000000000000 l    d  .text._ZN9__gnu_cxx13new_allocatorIPiE7destroyIS1_EEvPT_	0000000000000000 .text._ZN9__gnu_cxx13new_allocatorIPiE7destroyIS1_EEvPT_
0000000000000000 l    d  .text._ZSt8_DestroyIPPiEvT_S2_	0000000000000000 .text._ZSt8_DestroyIPPiEvT_S2_
0000000000000000 l    d  .text._ZNSaIdEC2Ev	0000000000000000 .text._ZNSaIdEC2Ev
0000000000000000 l    d  .text._ZN9__gnu_cxx13new_allocatorIdED2Ev	0000000000000000 .text._ZN9__gnu_cxx13new_allocatorIdED2Ev
0000000000000000 l    d  .text._ZNSt16allocator_traitsISaIdEE10deallocateERS0_Pdm	0000000000000000 .text._ZNSt16allocator_traitsISaIdEE10deallocateERS0_Pdm
0000000000000000 l    d  .text._ZNSt12_Destroy_auxILb1EE9__destroyIPdEEvT_S3_	0000000000000000 .text._ZNSt12_Destroy_auxILb1EE9__destroyIPdEEvT_S3_
0000000000000000 l    d  .text._ZNSt12_Destroy_auxILb1EE9__destroyIPiEEvT_S3_	0000000000000000 .text._ZNSt12_Destroy_auxILb1EE9__destroyIPiEEvT_S3_
0000000000000000 l    d  .text._ZNKSt6vectorIiSaIiEE8max_sizeEv	0000000000000000 .text._ZNKSt6vectorIiSaIiEE8max_sizeEv
0000000000000000 l    d  .text._ZNSt13move_iteratorIPiEC2ES0_	0000000000000000 .text._ZNSt13move_iteratorIPiEC2ES0_
0000000000000000 l    d  .text._ZSt22__uninitialized_copy_aISt13move_iteratorIPiES1_iET0_T_S4_S3_RSaIT1_E	0000000000000000 .text._ZSt22__uninitialized_copy_aISt13move_iteratorIPiES1_iET0_T_S4_S3_RSaIT1_E
0000000000000000 l    d  .text._ZN9__gnu_cxx13new_allocatorIiE7destroyIiEEvPT_	0000000000000000 .text._ZN9__gnu_cxx13new_allocatorIiE7destroyIiEEvPT_
0000000000000000 l    d  .text._ZN9__gnu_cxx13new_allocatorIPiE9constructIS1_JS1_EEEvPT_DpOT0_	0000000000000000 .text._ZN9__gnu_cxx13new_allocatorIPiE9constructIS1_JS1_EEEvPT_DpOT0_
0000000000000000 l    d  .text._ZNK9__gnu_cxx17__normal_iteratorIPPiSt6vectorIS1_SaIS1_EEEmiEl	0000000000000000 .text._ZNK9__gnu_cxx17__normal_iteratorIPPiSt6vectorIS1_SaIS1_EEEmiEl
0000000000000000 l    d  .text._ZNK9__gnu_cxx17__normal_iteratorIPPiSt6vectorIS1_SaIS1_EEEdeEv	0000000000000000 .text._ZNK9__gnu_cxx17__normal_iteratorIPPiSt6vectorIS1_SaIS1_EEEdeEv
0000000000000000 l    d  .text._ZN9__gnu_cxx13new_allocatorIiE9constructIiJiEEEvPT_DpOT0_	0000000000000000 .text._ZN9__gnu_cxx13new_allocatorIiE9constructIiJiEEEvPT_DpOT0_
0000000000000000 l    d  .text._ZNK9__gnu_cxx17__normal_iteratorIPiSt6vectorIiSaIiEEEmiEl	0000000000000000 .text._ZNK9__gnu_cxx17__normal_iteratorIPiSt6vectorIiSaIiEEEmiEl
0000000000000000 l    d  .text._ZNK9__gnu_cxx17__normal_iteratorIPiSt6vectorIiSaIiEEEdeEv	0000000000000000 .text._ZNK9__gnu_cxx17__normal_iteratorIPiSt6vectorIiSaIiEEEdeEv
0000000000000000 l    d  .text._ZN9__gnu_cxx17__normal_iteratorIPcNSt7__cxx1112basic_stringIcSt11char_traitsIcESaIcEEEEC2ERKS1_	0000000000000000 .text._ZN9__gnu_cxx17__normal_iteratorIPcNSt7__cxx1112basic_stringIcSt11char_traitsIcESaIcEEEEC2ERKS1_
0000000000000000 l    d  .text._ZNK9__gnu_cxx17__normal_iteratorIPcNSt7__cxx1112basic_stringIcSt11char_traitsIcESaIcEEEE4baseEv	0000000000000000 .text._ZNK9__gnu_cxx17__normal_iteratorIPcNSt7__cxx1112basic_stringIcSt11char_traitsIcESaIcEEEE4baseEv
0000000000000000 l    d  .text._ZNKSt6vectorIdSaIdEE8max_sizeEv	0000000000000000 .text._ZNKSt6vectorIdSaIdEE8max_sizeEv
0000000000000000 l    d  .text._ZNSt16allocator_traitsISaIdEE8allocateERS0_m	0000000000000000 .text._ZNSt16allocator_traitsISaIdEE8allocateERS0_m
0000000000000000 l    d  .text._ZNSt13move_iteratorIPdEC2ES0_	0000000000000000 .text._ZNSt13move_iteratorIPdEC2ES0_
0000000000000000 l    d  .text._ZSt22__uninitialized_copy_aISt13move_iteratorIPdES1_dET0_T_S4_S3_RSaIT1_E	0000000000000000 .text._ZSt22__uninitialized_copy_aISt13move_iteratorIPdES1_dET0_T_S4_S3_RSaIT1_E
0000000000000000 l    d  .text._ZN9__gnu_cxx13new_allocatorIdE7destroyIdEEvPT_	0000000000000000 .text._ZN9__gnu_cxx13new_allocatorIdE7destroyIdEEvPT_
0000000000000000 l    d  .text._ZN9__gnu_cxx13new_allocatorIPdE9constructIS1_JS1_EEEvPT_DpOT0_	0000000000000000 .text._ZN9__gnu_cxx13new_allocatorIPdE9constructIS1_JS1_EEEvPT_DpOT0_
0000000000000000 l    d  .text._ZNK9__gnu_cxx17__normal_iteratorIPPdSt6vectorIS1_SaIS1_EEEmiEl	0000000000000000 .text._ZNK9__gnu_cxx17__normal_iteratorIPPdSt6vectorIS1_SaIS1_EEEmiEl
0000000000000000 l    d  .text._ZNK9__gnu_cxx17__normal_iteratorIPPdSt6vectorIS1_SaIS1_EEEdeEv	0000000000000000 .text._ZNK9__gnu_cxx17__normal_iteratorIPPdSt6vectorIS1_SaIS1_EEEdeEv
0000000000000000 l    d  .text._ZSt11__addressofIcEPT_RS0_	0000000000000000 .text._ZSt11__addressofIcEPT_RS0_
0000000000000000 l    d  .text._ZN9__gnu_cxx17__is_null_pointerIKcEEbPT_	0000000000000000 .text._ZN9__gnu_cxx17__is_null_pointerIKcEEbPT_
0000000000000000 l    d  .text._ZSt10__distanceIPKcENSt15iterator_traitsIT_E15difference_typeES3_S3_St26random_access_iterator_tag	0000000000000000 .text._ZSt10__distanceIPKcENSt15iterator_traitsIT_E15difference_typeES3_S3_St26random_access_iterator_tag
0000000000000000 l    d  .text._ZNSt7__cxx1112basic_stringIcSt11char_traitsIcESaIcEE13_S_copy_charsEPcPKcS7_	0000000000000000 .text._ZNSt7__cxx1112basic_stringIcSt11char_traitsIcESaIcEE13_S_copy_charsEPcPKcS7_
0000000000000000 l    d  .text._ZNSt12experimental10filesystem2v17__cxx114path5_CmptD2Ev	0000000000000000 .text._ZNSt12experimental10filesystem2v17__cxx114path5_CmptD2Ev
0000000000000000 l    d  .text._ZSt8_DestroyINSt12experimental10filesystem2v17__cxx114path5_CmptEEvPT_	0000000000000000 .text._ZSt8_DestroyINSt12experimental10filesystem2v17__cxx114path5_CmptEEvPT_
0000000000000000 l    d  .text._ZN9__gnu_cxx13new_allocatorINSt12experimental10filesystem2v17__cxx114path5_CmptEEC2Ev	0000000000000000 .text._ZN9__gnu_cxx13new_allocatorINSt12experimental10filesystem2v17__cxx114path5_CmptEEC2Ev
0000000000000000 l    d  .text._ZSt9addressofIKcEPT_RS1_	0000000000000000 .text._ZSt9addressofIKcEPT_RS1_
0000000000000000 l    d  .text._ZN9__gnu_cxx17__is_null_pointerIcEEbPT_	0000000000000000 .text._ZN9__gnu_cxx17__is_null_pointerIcEEbPT_
0000000000000000 l    d  .text._ZSt10__distanceIPcENSt15iterator_traitsIT_E15difference_typeES2_S2_St26random_access_iterator_tag	0000000000000000 .text._ZSt10__distanceIPcENSt15iterator_traitsIT_E15difference_typeES2_S2_St26random_access_iterator_tag
0000000000000000 l    d  .text._ZNSt7__cxx1112basic_stringIcSt11char_traitsIcESaIcEE13_S_copy_charsEPcS5_S5_	0000000000000000 .text._ZNSt7__cxx1112basic_stringIcSt11char_traitsIcESaIcEE13_S_copy_charsEPcS5_S5_
0000000000000000 l    d  .text._ZSt19__iterator_categoryIN9__gnu_cxx17__normal_iteratorIPKcNSt7__cxx1112basic_stringIcSt11char_traitsIcESaIcEEEEEENSt15iterator_traitsIT_E17iterator_categoryERKSC_	0000000000000000 .text._ZSt19__iterator_categoryIN9__gnu_cxx17__normal_iteratorIPKcNSt7__cxx1112basic_stringIcSt11char_traitsIcESaIcEEEEEENSt15iterator_traitsIT_E17iterator_categoryERKSC_
0000000000000000 l    d  .text._ZSt8distanceIN9__gnu_cxx17__normal_iteratorIPKcNSt7__cxx1112basic_stringIcSt11char_traitsIcESaIcEEEEEENSt15iterator_traitsIT_E15difference_typeESC_SC_	0000000000000000 .text._ZSt8distanceIN9__gnu_cxx17__normal_iteratorIPKcNSt7__cxx1112basic_stringIcSt11char_traitsIcESaIcEEEEEENSt15iterator_traitsIT_E15difference_typeESC_SC_
0000000000000000 l    d  .text._ZNSt7__cxx1112basic_stringIcSt11char_traitsIcESaIcEE12_M_constructIN9__gnu_cxx17__normal_iteratorIPKcS4_EEEEvT_SB_St20forward_iterator_tag	0000000000000000 .text._ZNSt7__cxx1112basic_stringIcSt11char_traitsIcESaIcEE12_M_constructIN9__gnu_cxx17__normal_iteratorIPKcS4_EEEEvT_SB_St20forward_iterator_tag
0000000000000000 l    d  .text._ZN9__gnu_cxx13new_allocatorINSt7__cxx1112basic_stringIcSt11char_traitsIcESaIcEEEEC2ERKS7_	0000000000000000 .text._ZN9__gnu_cxx13new_allocatorINSt7__cxx1112basic_stringIcSt11char_traitsIcESaIcEEEEC2ERKS7_
0000000000000000 l    d  .text._ZN9__gnu_cxx13new_allocatorINSt7__cxx1112basic_stringIcSt11char_traitsIcESaIcEEEE10deallocateEPS6_m	0000000000000000 .text._ZN9__gnu_cxx13new_allocatorINSt7__cxx1112basic_stringIcSt11char_traitsIcESaIcEEEE10deallocateEPS6_m
0000000000000000 l    d  .text._ZN9__gnu_cxx13new_allocatorINSt7__cxx1112basic_stringIcSt11char_traitsIcESaIcEEEE8allocateEmPKv	0000000000000000 .text._ZN9__gnu_cxx13new_allocatorINSt7__cxx1112basic_stringIcSt11char_traitsIcESaIcEEEE8allocateEmPKv
0000000000000000 l    d  .text._ZNSt20__uninitialized_copyILb0EE13__uninit_copyIPKNSt7__cxx1112basic_stringIcSt11char_traitsIcESaIcEEEPS7_EET0_T_SC_SB_	0000000000000000 .text._ZNSt20__uninitialized_copyILb0EE13__uninit_copyIPKNSt7__cxx1112basic_stringIcSt11char_traitsIcESaIcEEEPS7_EET0_T_SC_SB_
0000000000000000 l    d  .text._ZSt8_DestroyINSt7__cxx1112basic_stringIcSt11char_traitsIcESaIcEEEEvPT_	0000000000000000 .text._ZSt8_DestroyINSt7__cxx1112basic_stringIcSt11char_traitsIcESaIcEEEEvPT_
0000000000000000 l    d  .text._ZN9__gnu_cxx13new_allocatorIiEC2ERKS1_	0000000000000000 .text._ZN9__gnu_cxx13new_allocatorIiEC2ERKS1_
0000000000000000 l    d  .text._ZN9__gnu_cxx13new_allocatorIiE10deallocateEPim	0000000000000000 .text._ZN9__gnu_cxx13new_allocatorIiE10deallocateEPim
0000000000000000 l    d  .text._ZN9__gnu_cxx13new_allocatorIiE8allocateEmPKv	0000000000000000 .text._ZN9__gnu_cxx13new_allocatorIiE8allocateEmPKv
0000000000000000 l    d  .text._ZNSt20__uninitialized_copyILb1EE13__uninit_copyIPKiPiEET0_T_S6_S5_	0000000000000000 .text._ZNSt20__uninitialized_copyILb1EE13__uninit_copyIPKiPiEET0_T_S6_S5_
0000000000000000 l    d  .text._ZN9__gnu_cxx13new_allocatorIPdEC2Ev	0000000000000000 .text._ZN9__gnu_cxx13new_allocatorIPdEC2Ev
0000000000000000 l    d  .text._ZN9__gnu_cxx13new_allocatorIPdE10deallocateEPS1_m	0000000000000000 .text._ZN9__gnu_cxx13new_allocatorIPdE10deallocateEPS1_m
0000000000000000 l    d  .text._ZN9__gnu_cxx13new_allocatorIPiEC2Ev	0000000000000000 .text._ZN9__gnu_cxx13new_allocatorIPiEC2Ev
0000000000000000 l    d  .text._ZN9__gnu_cxx13new_allocatorIPiE10deallocateEPS1_m	0000000000000000 .text._ZN9__gnu_cxx13new_allocatorIPiE10deallocateEPS1_m
0000000000000000 l    d  .text._ZNSt16allocator_traitsISaIPdEE8max_sizeERKS1_	0000000000000000 .text._ZNSt16allocator_traitsISaIPdEE8max_sizeERKS1_
0000000000000000 l    d  .text._ZNKSt12_Vector_baseIPdSaIS0_EE19_M_get_Tp_allocatorEv	0000000000000000 .text._ZNKSt12_Vector_baseIPdSaIS0_EE19_M_get_Tp_allocatorEv
0000000000000000 l    d  .text._ZN9__gnu_cxx13new_allocatorIPdE8allocateEmPKv	0000000000000000 .text._ZN9__gnu_cxx13new_allocatorIPdE8allocateEmPKv
0000000000000000 l    d  .text._ZSt18uninitialized_copyISt13move_iteratorIPPdES2_ET0_T_S5_S4_	0000000000000000 .text._ZSt18uninitialized_copyISt13move_iteratorIPPdES2_ET0_T_S5_S4_
0000000000000000 l    d  .text._ZNSt12_Destroy_auxILb1EE9__destroyIPPdEEvT_S4_	0000000000000000 .text._ZNSt12_Destroy_auxILb1EE9__destroyIPPdEEvT_S4_
0000000000000000 l    d  .text._ZNSt16allocator_traitsISaIPiEE8max_sizeERKS1_	0000000000000000 .text._ZNSt16allocator_traitsISaIPiEE8max_sizeERKS1_
0000000000000000 l    d  .text._ZNKSt12_Vector_baseIPiSaIS0_EE19_M_get_Tp_allocatorEv	0000000000000000 .text._ZNKSt12_Vector_baseIPiSaIS0_EE19_M_get_Tp_allocatorEv
0000000000000000 l    d  .text._ZN9__gnu_cxx13new_allocatorIPiE8allocateEmPKv	0000000000000000 .text._ZN9__gnu_cxx13new_allocatorIPiE8allocateEmPKv
0000000000000000 l    d  .text._ZSt18uninitialized_copyISt13move_iteratorIPPiES2_ET0_T_S5_S4_	0000000000000000 .text._ZSt18uninitialized_copyISt13move_iteratorIPPiES2_ET0_T_S5_S4_
0000000000000000 l    d  .text._ZNSt12_Destroy_auxILb1EE9__destroyIPPiEEvT_S4_	0000000000000000 .text._ZNSt12_Destroy_auxILb1EE9__destroyIPPiEEvT_S4_
0000000000000000 l    d  .text._ZN9__gnu_cxx13new_allocatorIdEC2Ev	0000000000000000 .text._ZN9__gnu_cxx13new_allocatorIdEC2Ev
0000000000000000 l    d  .text._ZN9__gnu_cxx13new_allocatorIdE10deallocateEPdm	0000000000000000 .text._ZN9__gnu_cxx13new_allocatorIdE10deallocateEPdm
0000000000000000 l    d  .text._ZNSt16allocator_traitsISaIiEE8max_sizeERKS0_	0000000000000000 .text._ZNSt16allocator_traitsISaIiEE8max_sizeERKS0_
0000000000000000 l    d  .text._ZNKSt12_Vector_baseIiSaIiEE19_M_get_Tp_allocatorEv	0000000000000000 .text._ZNKSt12_Vector_baseIiSaIiEE19_M_get_Tp_allocatorEv
0000000000000000 l    d  .text._ZSt18uninitialized_copyISt13move_iteratorIPiES1_ET0_T_S4_S3_	0000000000000000 .text._ZSt18uninitialized_copyISt13move_iteratorIPiES1_ET0_T_S4_S3_
0000000000000000 l    d  .text._ZNSt16allocator_traitsISaIdEE8max_sizeERKS0_	0000000000000000 .text._ZNSt16allocator_traitsISaIdEE8max_sizeERKS0_
0000000000000000 l    d  .text._ZNKSt12_Vector_baseIdSaIdEE19_M_get_Tp_allocatorEv	0000000000000000 .text._ZNKSt12_Vector_baseIdSaIdEE19_M_get_Tp_allocatorEv
0000000000000000 l    d  .text._ZN9__gnu_cxx13new_allocatorIdE8allocateEmPKv	0000000000000000 .text._ZN9__gnu_cxx13new_allocatorIdE8allocateEmPKv
0000000000000000 l    d  .text._ZSt18uninitialized_copyISt13move_iteratorIPdES1_ET0_T_S4_S3_	0000000000000000 .text._ZSt18uninitialized_copyISt13move_iteratorIPdES1_ET0_T_S4_S3_
0000000000000000 l    d  .text._ZSt11__addressofIKcEPT_RS1_	0000000000000000 .text._ZSt11__addressofIKcEPT_RS1_
0000000000000000 l    d  .text._ZN9__gnu_cxx17__is_null_pointerINS_17__normal_iteratorIPKcNSt7__cxx1112basic_stringIcSt11char_traitsIcESaIcEEEEEEEbT_	0000000000000000 .text._ZN9__gnu_cxx17__is_null_pointerINS_17__normal_iteratorIPKcNSt7__cxx1112basic_stringIcSt11char_traitsIcESaIcEEEEEEEbT_
0000000000000000 l    d  .text._ZN9__gnu_cxxneIPKcNSt7__cxx1112basic_stringIcSt11char_traitsIcESaIcEEEEEbRKNS_17__normal_iteratorIT_T0_EESE_	0000000000000000 .text._ZN9__gnu_cxxneIPKcNSt7__cxx1112basic_stringIcSt11char_traitsIcESaIcEEEEEbRKNS_17__normal_iteratorIT_T0_EESE_
0000000000000000 l    d  .text._ZSt10__distanceIN9__gnu_cxx17__normal_iteratorIPKcNSt7__cxx1112basic_stringIcSt11char_traitsIcESaIcEEEEEENSt15iterator_traitsIT_E15difference_typeESC_SC_St26random_access_iterator_tag	0000000000000000 .text._ZSt10__distanceIN9__gnu_cxx17__normal_iteratorIPKcNSt7__cxx1112basic_stringIcSt11char_traitsIcESaIcEEEEEENSt15iterator_traitsIT_E15difference_typeESC_SC_St26random_access_iterator_tag
0000000000000000 l    d  .text._ZNSt7__cxx1112basic_stringIcSt11char_traitsIcESaIcEE13_S_copy_charsEPcN9__gnu_cxx17__normal_iteratorIPKcS4_EESA_	0000000000000000 .text._ZNSt7__cxx1112basic_stringIcSt11char_traitsIcESaIcEE13_S_copy_charsEPcN9__gnu_cxx17__normal_iteratorIPKcS4_EESA_
0000000000000000 l    d  .text._ZNK9__gnu_cxx13new_allocatorINSt7__cxx1112basic_stringIcSt11char_traitsIcESaIcEEEE8max_sizeEv	0000000000000000 .text._ZNK9__gnu_cxx13new_allocatorINSt7__cxx1112basic_stringIcSt11char_traitsIcESaIcEEEE8max_sizeEv
0000000000000000 l    d  .text._ZSt7forwardIRKNSt7__cxx1112basic_stringIcSt11char_traitsIcESaIcEEEEOT_RNSt16remove_referenceIS8_E4typeE	0000000000000000 .text._ZSt7forwardIRKNSt7__cxx1112basic_stringIcSt11char_traitsIcESaIcEEEEOT_RNSt16remove_referenceIS8_E4typeE
0000000000000000 l    d  .text._ZSt10_ConstructINSt7__cxx1112basic_stringIcSt11char_traitsIcESaIcEEEJRKS5_EEvPT_DpOT0_	0000000000000000 .text._ZSt10_ConstructINSt7__cxx1112basic_stringIcSt11char_traitsIcESaIcEEEJRKS5_EEvPT_DpOT0_
0000000000000000 l    d  .text._ZNK9__gnu_cxx13new_allocatorIiE8max_sizeEv	0000000000000000 .text._ZNK9__gnu_cxx13new_allocatorIiE8max_sizeEv
0000000000000000 l    d  .text._ZSt4copyIPKiPiET0_T_S4_S3_	0000000000000000 .text._ZSt4copyIPKiPiET0_T_S4_S3_
0000000000000000 l    d  .text._ZNK9__gnu_cxx13new_allocatorIPdE8max_sizeEv	0000000000000000 .text._ZNK9__gnu_cxx13new_allocatorIPdE8max_sizeEv
0000000000000000 l    d  .text._ZNSt20__uninitialized_copyILb1EE13__uninit_copyISt13move_iteratorIPPdES4_EET0_T_S7_S6_	0000000000000000 .text._ZNSt20__uninitialized_copyILb1EE13__uninit_copyISt13move_iteratorIPPdES4_EET0_T_S7_S6_
0000000000000000 l    d  .text._ZNK9__gnu_cxx13new_allocatorIPiE8max_sizeEv	0000000000000000 .text._ZNK9__gnu_cxx13new_allocatorIPiE8max_sizeEv
0000000000000000 l    d  .text._ZNSt20__uninitialized_copyILb1EE13__uninit_copyISt13move_iteratorIPPiES4_EET0_T_S7_S6_	0000000000000000 .text._ZNSt20__uninitialized_copyILb1EE13__uninit_copyISt13move_iteratorIPPiES4_EET0_T_S7_S6_
0000000000000000 l    d  .text._ZNSt20__uninitialized_copyILb1EE13__uninit_copyISt13move_iteratorIPiES3_EET0_T_S6_S5_	0000000000000000 .text._ZNSt20__uninitialized_copyILb1EE13__uninit_copyISt13move_iteratorIPiES3_EET0_T_S6_S5_
0000000000000000 l    d  .text._ZNK9__gnu_cxx13new_allocatorIdE8max_sizeEv	0000000000000000 .text._ZNK9__gnu_cxx13new_allocatorIdE8max_sizeEv
0000000000000000 l    d  .text._ZNSt20__uninitialized_copyILb1EE13__uninit_copyISt13move_iteratorIPdES3_EET0_T_S6_S5_	0000000000000000 .text._ZNSt20__uninitialized_copyILb1EE13__uninit_copyISt13move_iteratorIPdES3_EET0_T_S6_S5_
0000000000000000 l    d  .text._ZNK9__gnu_cxx17__normal_iteratorIPKcNSt7__cxx1112basic_stringIcSt11char_traitsIcESaIcEEEE4baseEv	0000000000000000 .text._ZNK9__gnu_cxx17__normal_iteratorIPKcNSt7__cxx1112basic_stringIcSt11char_traitsIcESaIcEEEE4baseEv
0000000000000000 l    d  .text._ZN9__gnu_cxxmiIPKcNSt7__cxx1112basic_stringIcSt11char_traitsIcESaIcEEEEENS_17__normal_iteratorIT_T0_E15difference_typeERKSC_SF_	0000000000000000 .text._ZN9__gnu_cxxmiIPKcNSt7__cxx1112basic_stringIcSt11char_traitsIcESaIcEEEEENS_17__normal_iteratorIT_T0_E15difference_typeERKSC_SF_
0000000000000000 l    d  .text._ZSt12__miter_baseIPKiET_S2_	0000000000000000 .text._ZSt12__miter_baseIPKiET_S2_
0000000000000000 l    d  .text._ZSt14__copy_move_a2ILb0EPKiPiET1_T0_S4_S3_	0000000000000000 .text._ZSt14__copy_move_a2ILb0EPKiPiET1_T0_S4_S3_
0000000000000000 l    d  .text._ZNKSt13move_iteratorIPPdE4baseEv	0000000000000000 .text._ZNKSt13move_iteratorIPPdE4baseEv
0000000000000000 l    d  .text._ZSt4copyISt13move_iteratorIPPdES2_ET0_T_S5_S4_	0000000000000000 .text._ZSt4copyISt13move_iteratorIPPdES2_ET0_T_S5_S4_
0000000000000000 l    d  .text._ZNKSt13move_iteratorIPPiE4baseEv	0000000000000000 .text._ZNKSt13move_iteratorIPPiE4baseEv
0000000000000000 l    d  .text._ZSt4copyISt13move_iteratorIPPiES2_ET0_T_S5_S4_	0000000000000000 .text._ZSt4copyISt13move_iteratorIPPiES2_ET0_T_S5_S4_
0000000000000000 l    d  .text._ZNKSt13move_iteratorIPiE4baseEv	0000000000000000 .text._ZNKSt13move_iteratorIPiE4baseEv
0000000000000000 l    d  .text._ZSt4copyISt13move_iteratorIPiES1_ET0_T_S4_S3_	0000000000000000 .text._ZSt4copyISt13move_iteratorIPiES1_ET0_T_S4_S3_
0000000000000000 l    d  .text._ZNKSt13move_iteratorIPdE4baseEv	0000000000000000 .text._ZNKSt13move_iteratorIPdE4baseEv
0000000000000000 l    d  .text._ZSt4copyISt13move_iteratorIPdES1_ET0_T_S4_S3_	0000000000000000 .text._ZSt4copyISt13move_iteratorIPdES1_ET0_T_S4_S3_
0000000000000000 l    d  .text._ZSt12__niter_baseIPKiET_S2_	0000000000000000 .text._ZSt12__niter_baseIPKiET_S2_
0000000000000000 l    d  .text._ZSt12__niter_baseIPiET_S1_	0000000000000000 .text._ZSt12__niter_baseIPiET_S1_
0000000000000000 l    d  .text._ZSt13__copy_move_aILb0EPKiPiET1_T0_S4_S3_	0000000000000000 .text._ZSt13__copy_move_aILb0EPKiPiET1_T0_S4_S3_
0000000000000000 l    d  .text._ZSt12__miter_baseIPPdEDTcl12__miter_basecldtfp_4baseEEESt13move_iteratorIT_E	0000000000000000 .text._ZSt12__miter_baseIPPdEDTcl12__miter_basecldtfp_4baseEEESt13move_iteratorIT_E
0000000000000000 l    d  .text._ZSt14__copy_move_a2ILb1EPPdS1_ET1_T0_S3_S2_	0000000000000000 .text._ZSt14__copy_move_a2ILb1EPPdS1_ET1_T0_S3_S2_
0000000000000000 l    d  .text._ZSt12__miter_baseIPPiEDTcl12__miter_basecldtfp_4baseEEESt13move_iteratorIT_E	0000000000000000 .text._ZSt12__miter_baseIPPiEDTcl12__miter_basecldtfp_4baseEEESt13move_iteratorIT_E
0000000000000000 l    d  .text._ZSt14__copy_move_a2ILb1EPPiS1_ET1_T0_S3_S2_	0000000000000000 .text._ZSt14__copy_move_a2ILb1EPPiS1_ET1_T0_S3_S2_
0000000000000000 l    d  .text._ZSt12__miter_baseIPiEDTcl12__miter_basecldtfp_4baseEEESt13move_iteratorIT_E	0000000000000000 .text._ZSt12__miter_baseIPiEDTcl12__miter_basecldtfp_4baseEEESt13move_iteratorIT_E
0000000000000000 l    d  .text._ZSt14__copy_move_a2ILb1EPiS0_ET1_T0_S2_S1_	0000000000000000 .text._ZSt14__copy_move_a2ILb1EPiS0_ET1_T0_S2_S1_
0000000000000000 l    d  .text._ZSt12__miter_baseIPdEDTcl12__miter_basecldtfp_4baseEEESt13move_iteratorIT_E	0000000000000000 .text._ZSt12__miter_baseIPdEDTcl12__miter_basecldtfp_4baseEEESt13move_iteratorIT_E
0000000000000000 l    d  .text._ZSt14__copy_move_a2ILb1EPdS0_ET1_T0_S2_S1_	0000000000000000 .text._ZSt14__copy_move_a2ILb1EPdS0_ET1_T0_S2_S1_
0000000000000000 l    d  .text._ZNSt11__copy_moveILb0ELb1ESt26random_access_iterator_tagE8__copy_mIiEEPT_PKS3_S6_S4_	0000000000000000 .text._ZNSt11__copy_moveILb0ELb1ESt26random_access_iterator_tagE8__copy_mIiEEPT_PKS3_S6_S4_
0000000000000000 l    d  .text._ZSt12__miter_baseIPPdET_S2_	0000000000000000 .text._ZSt12__miter_baseIPPdET_S2_
0000000000000000 l    d  .text._ZSt12__niter_baseIPPdET_S2_	0000000000000000 .text._ZSt12__niter_baseIPPdET_S2_
0000000000000000 l    d  .text._ZSt13__copy_move_aILb1EPPdS1_ET1_T0_S3_S2_	0000000000000000 .text._ZSt13__copy_move_aILb1EPPdS1_ET1_T0_S3_S2_
0000000000000000 l    d  .text._ZSt12__miter_baseIPPiET_S2_	0000000000000000 .text._ZSt12__miter_baseIPPiET_S2_
0000000000000000 l    d  .text._ZSt12__niter_baseIPPiET_S2_	0000000000000000 .text._ZSt12__niter_baseIPPiET_S2_
0000000000000000 l    d  .text._ZSt13__copy_move_aILb1EPPiS1_ET1_T0_S3_S2_	0000000000000000 .text._ZSt13__copy_move_aILb1EPPiS1_ET1_T0_S3_S2_
0000000000000000 l    d  .text._ZSt12__miter_baseIPiET_S1_	0000000000000000 .text._ZSt12__miter_baseIPiET_S1_
0000000000000000 l    d  .text._ZSt13__copy_move_aILb1EPiS0_ET1_T0_S2_S1_	0000000000000000 .text._ZSt13__copy_move_aILb1EPiS0_ET1_T0_S2_S1_
0000000000000000 l    d  .text._ZSt12__miter_baseIPdET_S1_	0000000000000000 .text._ZSt12__miter_baseIPdET_S1_
0000000000000000 l    d  .text._ZSt12__niter_baseIPdET_S1_	0000000000000000 .text._ZSt12__niter_baseIPdET_S1_
0000000000000000 l    d  .text._ZSt13__copy_move_aILb1EPdS0_ET1_T0_S2_S1_	0000000000000000 .text._ZSt13__copy_move_aILb1EPdS0_ET1_T0_S2_S1_
0000000000000000 l    d  .text._ZNSt11__copy_moveILb1ELb1ESt26random_access_iterator_tagE8__copy_mIPdEEPT_PKS4_S7_S5_	0000000000000000 .text._ZNSt11__copy_moveILb1ELb1ESt26random_access_iterator_tagE8__copy_mIPdEEPT_PKS4_S7_S5_
0000000000000000 l    d  .text._ZNSt11__copy_moveILb1ELb1ESt26random_access_iterator_tagE8__copy_mIPiEEPT_PKS4_S7_S5_	0000000000000000 .text._ZNSt11__copy_moveILb1ELb1ESt26random_access_iterator_tagE8__copy_mIPiEEPT_PKS4_S7_S5_
0000000000000000 l    d  .text._ZNSt11__copy_moveILb1ELb1ESt26random_access_iterator_tagE8__copy_mIiEEPT_PKS3_S6_S4_	0000000000000000 .text._ZNSt11__copy_moveILb1ELb1ESt26random_access_iterator_tagE8__copy_mIiEEPT_PKS3_S6_S4_
0000000000000000 l    d  .text._ZNSt11__copy_moveILb1ELb1ESt26random_access_iterator_tagE8__copy_mIdEEPT_PKS3_S6_S4_	0000000000000000 .text._ZNSt11__copy_moveILb1ELb1ESt26random_access_iterator_tagE8__copy_mIdEEPT_PKS3_S6_S4_
0000000000000000 l    d  .data.rel.ro._ZTVN3MPI3WinE	0000000000000000 .data.rel.ro._ZTVN3MPI3WinE
0000000000000000 l    d  .data.rel.ro.local._ZTVN3MPI4InfoE	0000000000000000 .data.rel.ro.local._ZTVN3MPI4InfoE
0000000000000000 l    d  .data.rel.ro.local._ZTVN3MPI6StatusE	0000000000000000 .data.rel.ro.local._ZTVN3MPI6StatusE
0000000000000000 l    d  .data.rel.ro.local._ZTVN3MPI10ErrhandlerE	0000000000000000 .data.rel.ro.local._ZTVN3MPI10ErrhandlerE
0000000000000000 l    d  .data.rel.ro.local._ZTVN3MPI2OpE	0000000000000000 .data.rel.ro.local._ZTVN3MPI2OpE
0000000000000000 l    d  .data.rel.ro.local._ZTVN3MPI5GroupE	0000000000000000 .data.rel.ro.local._ZTVN3MPI5GroupE
0000000000000000 l    d  .data.rel.ro.local._ZTVN3MPI9IntercommE	0000000000000000 .data.rel.ro.local._ZTVN3MPI9IntercommE
0000000000000000 l    d  .text._ZN3MPI9IntercommD2Ev	0000000000000000 .text._ZN3MPI9IntercommD2Ev
0000000000000000 l    d  .text._ZN3MPI9IntercommD0Ev	0000000000000000 .text._ZN3MPI9IntercommD0Ev
0000000000000000 l    d  .data.rel.ro.local._ZTVN3MPI9GraphcommE	0000000000000000 .data.rel.ro.local._ZTVN3MPI9GraphcommE
0000000000000000 l    d  .text._ZN3MPI9GraphcommD2Ev	0000000000000000 .text._ZN3MPI9GraphcommD2Ev
0000000000000000 l    d  .text._ZN3MPI9GraphcommD0Ev	0000000000000000 .text._ZN3MPI9GraphcommD0Ev
0000000000000000 l    d  .data.rel.ro.local._ZTVN3MPI8CartcommE	0000000000000000 .data.rel.ro.local._ZTVN3MPI8CartcommE
0000000000000000 l    d  .text._ZN3MPI8CartcommD2Ev	0000000000000000 .text._ZN3MPI8CartcommD2Ev
0000000000000000 l    d  .text._ZN3MPI8CartcommD0Ev	0000000000000000 .text._ZN3MPI8CartcommD0Ev
0000000000000000 l    d  .data.rel.ro.local._ZTVN3MPI9IntracommE	0000000000000000 .data.rel.ro.local._ZTVN3MPI9IntracommE
0000000000000000 l    d  .data.rel.ro._ZTVN3MPI4CommE	0000000000000000 .data.rel.ro._ZTVN3MPI4CommE
0000000000000000 l    d  .data.rel.ro.local._ZTVN3MPI8GrequestE	0000000000000000 .data.rel.ro.local._ZTVN3MPI8GrequestE
0000000000000000 l    d  .data.rel.ro.local._ZTVN3MPI8PrequestE	0000000000000000 .data.rel.ro.local._ZTVN3MPI8PrequestE
0000000000000000 l    d  .data.rel.ro.local._ZTVN3MPI7RequestE	0000000000000000 .data.rel.ro.local._ZTVN3MPI7RequestE
0000000000000000 l    d  .data.rel.ro._ZTVN3MPI8DatatypeE	0000000000000000 .data.rel.ro._ZTVN3MPI8DatatypeE
0000000000000000 l    d  .data.rel.ro.local._ZTVN3MPI9Comm_NullE	0000000000000000 .data.rel.ro.local._ZTVN3MPI9Comm_NullE
0000000000000000 l    d  .data.rel.ro._ZTIN3MPI4InfoE	0000000000000000 .data.rel.ro._ZTIN3MPI4InfoE
0000000000000000 l    d  .rodata._ZTSN3MPI4InfoE	0000000000000000 .rodata._ZTSN3MPI4InfoE
0000000000000000 l    d  .data.rel.ro._ZTIN3MPI9IntercommE	0000000000000000 .data.rel.ro._ZTIN3MPI9IntercommE
0000000000000000 l    d  .rodata._ZTSN3MPI9IntercommE	0000000000000000 .rodata._ZTSN3MPI9IntercommE
0000000000000000 l    d  .data.rel.ro._ZTIN3MPI9GraphcommE	0000000000000000 .data.rel.ro._ZTIN3MPI9GraphcommE
0000000000000000 l    d  .rodata._ZTSN3MPI9GraphcommE	0000000000000000 .rodata._ZTSN3MPI9GraphcommE
0000000000000000 l    d  .data.rel.ro._ZTIN3MPI8CartcommE	0000000000000000 .data.rel.ro._ZTIN3MPI8CartcommE
0000000000000000 l    d  .rodata._ZTSN3MPI8CartcommE	0000000000000000 .rodata._ZTSN3MPI8CartcommE
0000000000000000 l    d  .data.rel.ro._ZTIN3MPI9IntracommE	0000000000000000 .data.rel.ro._ZTIN3MPI9IntracommE
0000000000000000 l    d  .rodata._ZTSN3MPI9IntracommE	0000000000000000 .rodata._ZTSN3MPI9IntracommE
0000000000000000 l    d  .data.rel.ro._ZTIN3MPI10ErrhandlerE	0000000000000000 .data.rel.ro._ZTIN3MPI10ErrhandlerE
0000000000000000 l    d  .rodata._ZTSN3MPI10ErrhandlerE	0000000000000000 .rodata._ZTSN3MPI10ErrhandlerE
0000000000000000 l    d  .data.rel.ro._ZTIN3MPI3WinE	0000000000000000 .data.rel.ro._ZTIN3MPI3WinE
0000000000000000 l    d  .rodata._ZTSN3MPI3WinE	0000000000000000 .rodata._ZTSN3MPI3WinE
0000000000000000 l    d  .data.rel.ro._ZTIN3MPI4CommE	0000000000000000 .data.rel.ro._ZTIN3MPI4CommE
0000000000000000 l    d  .rodata._ZTSN3MPI4CommE	0000000000000000 .rodata._ZTSN3MPI4CommE
0000000000000000 l    d  .data.rel.ro._ZTIN3MPI9Comm_NullE	0000000000000000 .data.rel.ro._ZTIN3MPI9Comm_NullE
0000000000000000 l    d  .rodata._ZTSN3MPI9Comm_NullE	0000000000000000 .rodata._ZTSN3MPI9Comm_NullE
0000000000000000 l    d  .data.rel.ro._ZTIN3MPI5GroupE	0000000000000000 .data.rel.ro._ZTIN3MPI5GroupE
0000000000000000 l    d  .rodata._ZTSN3MPI5GroupE	0000000000000000 .rodata._ZTSN3MPI5GroupE
0000000000000000 l    d  .data.rel.ro._ZTIN3MPI8GrequestE	0000000000000000 .data.rel.ro._ZTIN3MPI8GrequestE
0000000000000000 l    d  .rodata._ZTSN3MPI8GrequestE	0000000000000000 .rodata._ZTSN3MPI8GrequestE
0000000000000000 l    d  .data.rel.ro._ZTIN3MPI8PrequestE	0000000000000000 .data.rel.ro._ZTIN3MPI8PrequestE
0000000000000000 l    d  .rodata._ZTSN3MPI8PrequestE	0000000000000000 .rodata._ZTSN3MPI8PrequestE
0000000000000000 l    d  .data.rel.ro._ZTIN3MPI7RequestE	0000000000000000 .data.rel.ro._ZTIN3MPI7RequestE
0000000000000000 l    d  .rodata._ZTSN3MPI7RequestE	0000000000000000 .rodata._ZTSN3MPI7RequestE
0000000000000000 l    d  .data.rel.ro._ZTIN3MPI6StatusE	0000000000000000 .data.rel.ro._ZTIN3MPI6StatusE
0000000000000000 l    d  .rodata._ZTSN3MPI6StatusE	0000000000000000 .rodata._ZTSN3MPI6StatusE
0000000000000000 l    d  .data.rel.ro._ZTIN3MPI2OpE	0000000000000000 .data.rel.ro._ZTIN3MPI2OpE
0000000000000000 l    d  .rodata._ZTSN3MPI2OpE	0000000000000000 .rodata._ZTSN3MPI2OpE
0000000000000000 l    d  .data.rel.ro._ZTIN3MPI8DatatypeE	0000000000000000 .data.rel.ro._ZTIN3MPI8DatatypeE
0000000000000000 l    d  .rodata._ZTSN3MPI8DatatypeE	0000000000000000 .rodata._ZTSN3MPI8DatatypeE
000000000000187d l     F .text	00000000000005ac _Z41__static_initialization_and_destruction_0ii
0000000000000460 l     O .rodata	0000000000000018 ._96
0000000000000000 l    d  .text._ZNSt6vectorIPdSaIS0_EED2Ev	0000000000000000 .text._ZNSt6vectorIPdSaIS0_EED2Ev
0000000000000000 l    d  .text._ZNSt6vectorIPiSaIS0_EED2Ev	0000000000000000 .text._ZNSt6vectorIPiSaIS0_EED2Ev
0000000000001e29 l     F .text	0000000000000015 _GLOBAL__sub_I__Z12matrix_namesB5cxx11
0000000000000000 l    d  .init_array	0000000000000000 .init_array
0000000000000000 l    d  .data.rel.local.DW.ref.__gxx_personality_v0	0000000000000000 .data.rel.local.DW.ref.__gxx_personality_v0
0000000000000000 l    d  .note.GNU-stack	0000000000000000 .note.GNU-stack
0000000000000000 l    d  .eh_frame	0000000000000000 .eh_frame
0000000000000000 l       .group	0000000000000000 _ZNSt12experimental10filesystem2v17__cxx114pathD5Ev
0000000000000000 l       .group	0000000000000000 _ZNSt12experimental10filesystem2v17__cxx114pathC5Ev
0000000000000000 l       .group	0000000000000000 _ZNSt12experimental10filesystem2v17__cxx114pathC5EONSt7__cxx1112basic_stringIcSt11char_traitsIcESaIcEEE
0000000000000000 l       .group	0000000000000000 _ZNSt12__shared_ptrINSt12experimental10filesystem2v17__cxx114_DirELN9__gnu_cxx12_Lock_policyE2EED5Ev
0000000000000000 l       .group	0000000000000000 _ZNSt10shared_ptrINSt12experimental10filesystem2v17__cxx114_DirEED5Ev
0000000000000000 l       .group	0000000000000000 _ZNSt12experimental10filesystem2v17__cxx1118directory_iteratorD5Ev
0000000000000000 l       .group	0000000000000000 _ZNSt12experimental10filesystem2v17__cxx1118directory_iteratorC5ERKNS2_4pathE
0000000000000000 l       .group	0000000000000000 _ZNSt12experimental10filesystem2v17__cxx1118directory_iteratorC5EOS3_
0000000000000000 l       .group	0000000000000000 _ZNSt12experimental10filesystem2v17__cxx1118directory_iteratorC5Ev
0000000000000000 l       .group	0000000000000000 _ZN3MPI8DatatypeD5Ev
0000000000000000 l       .group	0000000000000000 _ZN3MPI8DatatypeC5EP15ompi_datatype_t
0000000000000000 l       .group	0000000000000000 _ZN3MPI6StatusD5Ev
0000000000000000 l       .group	0000000000000000 _ZN3MPI7RequestD5Ev
0000000000000000 l       .group	0000000000000000 _ZN3MPI7RequestC5EP14ompi_request_t
0000000000000000 l       .group	0000000000000000 _ZN3MPI8PrequestC5ERKP14ompi_request_t
0000000000000000 l       .group	0000000000000000 _ZN3MPI8PrequestD5Ev
0000000000000000 l       .group	0000000000000000 _ZN3MPI8GrequestD5Ev
0000000000000000 l       .group	0000000000000000 _ZN3MPI5GroupC5EP12ompi_group_t
0000000000000000 l       .group	0000000000000000 _ZN3MPI5GroupD5Ev
0000000000000000 l       .group	0000000000000000 _ZN3MPI9Comm_NullC5EP19ompi_communicator_t
0000000000000000 l       .group	0000000000000000 _ZN3MPI9Comm_NullD5Ev
0000000000000000 l       .group	0000000000000000 _ZN3MPI4CommC5EP19ompi_communicator_t
0000000000000000 l       .group	0000000000000000 _ZN3MPI3WinD5Ev
0000000000000000 l       .group	0000000000000000 _ZN3MPI10ErrhandlerD5Ev
0000000000000000 l       .group	0000000000000000 _ZN3MPI10ErrhandlerC5EP17ompi_errhandler_t
0000000000000000 l       .group	0000000000000000 _ZN3MPI4CommD5Ev
0000000000000000 l       .group	0000000000000000 _ZN3MPI9IntracommC5Ev
0000000000000000 l       .group	0000000000000000 _ZN3MPI9IntracommD5Ev
0000000000000000 l       .group	0000000000000000 _ZN3MPI9IntercommC5EP19ompi_communicator_t
0000000000000000 l       .group	0000000000000000 _ZN3MPI4InfoC5EP11ompi_info_t
0000000000000000 l       .group	0000000000000000 _ZN3MPI4InfoD5Ev
0000000000000000 l       .group	0000000000000000 _ZN3MPI9IntracommC5EP19ompi_communicator_t
0000000000000000 l       .group	0000000000000000 _ZN3MPI8CartcommC5ERKP19ompi_communicator_t
0000000000000000 l       .group	0000000000000000 _ZN3MPI9GraphcommC5ERKP19ompi_communicator_t
0000000000000000 l       .group	0000000000000000 _ZN3MPI2OpD5Ev
0000000000000000 l       .group	0000000000000000 _ZNSt12__shared_ptrINSt12experimental10filesystem2v17__cxx114_DirELN9__gnu_cxx12_Lock_policyE2EEC5ERKS7_
0000000000000000 l       .group	0000000000000000 _ZNSt10shared_ptrINSt12experimental10filesystem2v17__cxx114_DirEEC5ERKS5_
0000000000000000 l       .group	0000000000000000 _ZNSt12experimental10filesystem2v17__cxx1118directory_iteratorC5ERKS3_
0000000000000000 l       .group	0000000000000000 _ZNSt7__cxx1112basic_stringIcSt11char_traitsIcESaIcEE12_Alloc_hiderD5Ev
0000000000000000 l       .group	0000000000000000 _ZNSt7__cxx1112basic_stringIcSt11char_traitsIcESaIcEED5Ev
0000000000000000 l       .group	0000000000000000 _ZNSt6vectorINSt12experimental10filesystem2v17__cxx114path5_CmptESaIS5_EED5Ev
0000000000000000 l       .group	0000000000000000 _ZNSt7__cxx1112basic_stringIcSt11char_traitsIcESaIcEEC5Ev
0000000000000000 l       .group	0000000000000000 _ZNSt6vectorINSt12experimental10filesystem2v17__cxx114path5_CmptESaIS5_EEC5Ev
0000000000000000 l       .group	0000000000000000 _ZNSt7__cxx1112basic_stringIcSt11char_traitsIcESaIcEEC5EOS4_
0000000000000000 l       .group	0000000000000000 _ZNSt7__cxx1112basic_stringIcSt11char_traitsIcESaIcEEC5ERKS4_
0000000000000000 l       .group	0000000000000000 _ZNSt7__cxx1112basic_stringIcSt11char_traitsIcESaIcEEC5EPKcRKS3_
0000000000000000 l       .group	0000000000000000 _ZNSt14__shared_countILN9__gnu_cxx12_Lock_policyE2EED5Ev
0000000000000000 l       .group	0000000000000000 _ZNSt10shared_ptrINSt12experimental10filesystem2v17__cxx114_DirEEC5EOS5_
0000000000000000 l       .group	0000000000000000 _ZNSt12__shared_ptrINSt12experimental10filesystem2v17__cxx114_DirELN9__gnu_cxx12_Lock_policyE2EEC5Ev
0000000000000000 l       .group	0000000000000000 _ZNSaINSt7__cxx1112basic_stringIcSt11char_traitsIcESaIcEEEEC5Ev
0000000000000000 l       .group	0000000000000000 _ZNSaINSt7__cxx1112basic_stringIcSt11char_traitsIcESaIcEEEED5Ev
0000000000000000 l       .group	0000000000000000 _ZNSt6vectorINSt7__cxx1112basic_stringIcSt11char_traitsIcESaIcEEESaIS5_EEC5ESt16initializer_listIS5_ERKS6_
0000000000000000 l       .group	0000000000000000 _ZNSt6vectorINSt7__cxx1112basic_stringIcSt11char_traitsIcESaIcEEESaIS5_EED5Ev
0000000000000000 l       .group	0000000000000000 _ZNSaIiEC5Ev
0000000000000000 l       .group	0000000000000000 _ZNSaIiED5Ev
0000000000000000 l       .group	0000000000000000 _ZNSt6vectorIiSaIiEEC5ESt16initializer_listIiERKS0_
0000000000000000 l       .group	0000000000000000 _ZNSt6vectorIPdSaIS0_EEC5Ev
0000000000000000 l       .group	0000000000000000 _ZNSt6vectorIPiSaIS0_EEC5Ev
0000000000000000 l       .group	0000000000000000 _ZNSt6vectorIiSaIiEEC5Ev
0000000000000000 l       .group	0000000000000000 _ZNSt6vectorIdSaIdEEC5Ev
0000000000000000 l       .group	0000000000000000 _ZNSt6vectorIdSaIdEED5Ev
0000000000000000 l       .group	0000000000000000 _ZNSt14__shared_countILN9__gnu_cxx12_Lock_policyE2EEC5ERKS2_
0000000000000000 l       .group	0000000000000000 _ZNSt12experimental10filesystem2v17__cxx114pathC5IA7_cS3_EERKT_
0000000000000000 l       .group	0000000000000000 _ZNSt6vectorIiSaIiEED5Ev
0000000000000000 l       .group	0000000000000000 _ZNSt12experimental10filesystem2v17__cxx114pathC5IA4_cS3_EERKT_
0000000000000000 l       .group	0000000000000000 _ZNSt12experimental10filesystem2v17__cxx114pathC5IA8_cS3_EERKT_
0000000000000000 l       .group	0000000000000000 _ZNSt12experimental10filesystem2v17__cxx114pathC5IA12_cS3_EERKT_
0000000000000000 l       .group	0000000000000000 _ZNSt7__cxx1112basic_stringIcSt11char_traitsIcESaIcEE12_Alloc_hiderC5EPcRKS3_
0000000000000000 l       .group	0000000000000000 _ZNSt12_Vector_baseINSt12experimental10filesystem2v17__cxx114path5_CmptESaIS5_EE12_Vector_implD5Ev
0000000000000000 l       .group	0000000000000000 _ZNSt12_Vector_baseINSt12experimental10filesystem2v17__cxx114path5_CmptESaIS5_EED5Ev
0000000000000000 l       .group	0000000000000000 _ZNSt7__cxx1112basic_stringIcSt11char_traitsIcESaIcEE12_Alloc_hiderC5EPcOS3_
0000000000000000 l       .group	0000000000000000 _ZNSt12_Vector_baseINSt12experimental10filesystem2v17__cxx114path5_CmptESaIS5_EEC5Ev
0000000000000000 l       .group	0000000000000000 _ZNSaINSt12experimental10filesystem2v17__cxx114path5_CmptEED5Ev
0000000000000000 l       .group	0000000000000000 _ZNSt7__cxx1112basic_stringIcSt11char_traitsIcESaIcEEC5IN9__gnu_cxx17__normal_iteratorIPKcS4_EEvEET_SB_RKS3_
0000000000000000 l       .group	0000000000000000 _ZNSt7__cxx1112basic_stringIcSt11char_traitsIcESaIcEEC5ERKS4_mm
0000000000000000 l       .group	0000000000000000 _ZNSt12__shared_ptrINSt12experimental10filesystem2v17__cxx114_DirELN9__gnu_cxx12_Lock_policyE2EEC5EOS7_
0000000000000000 l       .group	0000000000000000 _ZNSt14__shared_countILN9__gnu_cxx12_Lock_policyE2EEC5Ev
0000000000000000 l       .group	0000000000000000 _ZN9__gnu_cxx13new_allocatorINSt7__cxx1112basic_stringIcSt11char_traitsIcESaIcEEEEC5Ev
0000000000000000 l       .group	0000000000000000 _ZN9__gnu_cxx13new_allocatorINSt7__cxx1112basic_stringIcSt11char_traitsIcESaIcEEEED5Ev
0000000000000000 l       .group	0000000000000000 _ZNSt12_Vector_baseINSt7__cxx1112basic_stringIcSt11char_traitsIcESaIcEEESaIS5_EE12_Vector_implD5Ev
0000000000000000 l       .group	0000000000000000 _ZNSt12_Vector_baseINSt7__cxx1112basic_stringIcSt11char_traitsIcESaIcEEESaIS5_EEC5ERKS6_
0000000000000000 l       .group	0000000000000000 _ZNSt12_Vector_baseINSt7__cxx1112basic_stringIcSt11char_traitsIcESaIcEEESaIS5_EED5Ev
0000000000000000 l       .group	0000000000000000 _ZN9__gnu_cxx13new_allocatorIiEC5Ev
0000000000000000 l       .group	0000000000000000 _ZN9__gnu_cxx13new_allocatorIiED5Ev
0000000000000000 l       .group	0000000000000000 _ZNSt12_Vector_baseIiSaIiEE12_Vector_implD5Ev
0000000000000000 l       .group	0000000000000000 _ZNSt12_Vector_baseIiSaIiEEC5ERKS0_
0000000000000000 l       .group	0000000000000000 _ZNSt12_Vector_baseIiSaIiEED5Ev
0000000000000000 l       .group	0000000000000000 _ZNSt12_Vector_baseIPdSaIS0_EE12_Vector_implD5Ev
0000000000000000 l       .group	0000000000000000 _ZNSt12_Vector_baseIPdSaIS0_EEC5Ev
0000000000000000 l       .group	0000000000000000 _ZNSt12_Vector_baseIPdSaIS0_EED5Ev
0000000000000000 l       .group	0000000000000000 _ZNSt12_Vector_baseIPiSaIS0_EE12_Vector_implD5Ev
0000000000000000 l       .group	0000000000000000 _ZNSt12_Vector_baseIPiSaIS0_EEC5Ev
0000000000000000 l       .group	0000000000000000 _ZNSt12_Vector_baseIPiSaIS0_EED5Ev
0000000000000000 l       .group	0000000000000000 _ZNSt12_Vector_baseIiSaIiEEC5Ev
0000000000000000 l       .group	0000000000000000 _ZNSt12_Vector_baseIdSaIdEE12_Vector_implD5Ev
0000000000000000 l       .group	0000000000000000 _ZNSt12_Vector_baseIdSaIdEEC5Ev
0000000000000000 l       .group	0000000000000000 _ZNSt12_Vector_baseIdSaIdEED5Ev
0000000000000000 l       .group	0000000000000000 _ZNSt8__detail14_Quoted_stringIRNSt7__cxx1112basic_stringIcSt11char_traitsIcESaIcEEEcEC5ES7_cc
0000000000000000 l       .group	0000000000000000 _ZNSt12_Vector_baseINSt12experimental10filesystem2v17__cxx114path5_CmptESaIS5_EE12_Vector_implC5Ev
0000000000000000 l       .group	0000000000000000 _ZN9__gnu_cxx13new_allocatorINSt12experimental10filesystem2v17__cxx114path5_CmptEED5Ev
0000000000000000 l       .group	0000000000000000 _ZN9__gnu_cxx17__normal_iteratorIPKcNSt7__cxx1112basic_stringIcSt11char_traitsIcESaIcEEEEC5ERKS2_
0000000000000000 l       .group	0000000000000000 _ZNSt12_Vector_baseINSt7__cxx1112basic_stringIcSt11char_traitsIcESaIcEEESaIS5_EE12_Vector_implC5ERKS6_
0000000000000000 l       .group	0000000000000000 _ZNSt12_Vector_baseIiSaIiEE12_Vector_implC5ERKS0_
0000000000000000 l       .group	0000000000000000 _ZNSt12_Vector_baseIPdSaIS0_EE12_Vector_implC5Ev
0000000000000000 l       .group	0000000000000000 _ZNSaIPdED5Ev
0000000000000000 l       .group	0000000000000000 _ZNSt12_Vector_baseIPiSaIS0_EE12_Vector_implC5Ev
0000000000000000 l       .group	0000000000000000 _ZNSaIPiED5Ev
0000000000000000 l       .group	0000000000000000 _ZNSt12_Vector_baseIiSaIiEE12_Vector_implC5Ev
0000000000000000 l       .group	0000000000000000 _ZN9__gnu_cxx17__normal_iteratorIPPdSt6vectorIS1_SaIS1_EEEC5ERKS2_
0000000000000000 l       .group	0000000000000000 _ZN9__gnu_cxx17__normal_iteratorIPPiSt6vectorIS1_SaIS1_EEEC5ERKS2_
0000000000000000 l       .group	0000000000000000 _ZNSt12_Vector_baseIdSaIdEE12_Vector_implC5Ev
0000000000000000 l       .group	0000000000000000 _ZNSaIdED5Ev
0000000000000000 l       .group	0000000000000000 _ZN9__gnu_cxx17__normal_iteratorIPiSt6vectorIiSaIiEEEC5ERKS1_
0000000000000000 l       .group	0000000000000000 _ZN9__gnu_cxx17__normal_iteratorIPdSt6vectorIdSaIdEEEC5ERKS1_
0000000000000000 l       .group	0000000000000000 _ZNSaINSt12experimental10filesystem2v17__cxx114path5_CmptEEC5Ev
0000000000000000 l       .group	0000000000000000 _ZNSaINSt7__cxx1112basic_stringIcSt11char_traitsIcESaIcEEEEC5ERKS5_
0000000000000000 l       .group	0000000000000000 _ZNSaIiEC5ERKS_
0000000000000000 l       .group	0000000000000000 _ZNSaIPdEC5Ev
0000000000000000 l       .group	0000000000000000 _ZN9__gnu_cxx13new_allocatorIPdED5Ev
0000000000000000 l       .group	0000000000000000 _ZNSaIPiEC5Ev
0000000000000000 l       .group	0000000000000000 _ZN9__gnu_cxx13new_allocatorIPiED5Ev
0000000000000000 l       .group	0000000000000000 _ZNSt13move_iteratorIPPdEC5ES1_
0000000000000000 l       .group	0000000000000000 _ZNSt13move_iteratorIPPiEC5ES1_
0000000000000000 l       .group	0000000000000000 _ZNSaIdEC5Ev
0000000000000000 l       .group	0000000000000000 _ZN9__gnu_cxx13new_allocatorIdED5Ev
0000000000000000 l       .group	0000000000000000 _ZNSt13move_iteratorIPiEC5ES0_
0000000000000000 l       .group	0000000000000000 _ZN9__gnu_cxx17__normal_iteratorIPcNSt7__cxx1112basic_stringIcSt11char_traitsIcESaIcEEEEC5ERKS1_
0000000000000000 l       .group	0000000000000000 _ZNSt13move_iteratorIPdEC5ES0_
0000000000000000 l       .group	0000000000000000 _ZNSt12experimental10filesystem2v17__cxx114path5_CmptD5Ev
0000000000000000 l       .group	0000000000000000 _ZN9__gnu_cxx13new_allocatorINSt12experimental10filesystem2v17__cxx114path5_CmptEEC5Ev
0000000000000000 l       .group	0000000000000000 _ZN9__gnu_cxx13new_allocatorINSt7__cxx1112basic_stringIcSt11char_traitsIcESaIcEEEEC5ERKS7_
0000000000000000 l       .group	0000000000000000 _ZN9__gnu_cxx13new_allocatorIiEC5ERKS1_
0000000000000000 l       .group	0000000000000000 _ZN9__gnu_cxx13new_allocatorIPdEC5Ev
0000000000000000 l       .group	0000000000000000 _ZN9__gnu_cxx13new_allocatorIPiEC5Ev
0000000000000000 l       .group	0000000000000000 _ZN9__gnu_cxx13new_allocatorIdEC5Ev
0000000000000000 l       .group	0000000000000000 _ZN3MPI9IntercommD5Ev
0000000000000000 l       .group	0000000000000000 _ZN3MPI9GraphcommD5Ev
0000000000000000 l       .group	0000000000000000 _ZN3MPI8CartcommD5Ev
0000000000000000 l       .group	0000000000000000 _ZNSt6vectorIPdSaIS0_EED5Ev
0000000000000000 l       .group	0000000000000000 _ZNSt6vectorIPiSaIS0_EED5Ev
0000000000000000 l    d  .comment	0000000000000000 .comment
0000000000000000 l    d  .group	0000000000000000 .group
0000000000000000 l    d  .group	0000000000000000 .group
0000000000000000 l    d  .group	0000000000000000 .group
0000000000000000 l    d  .group	0000000000000000 .group
0000000000000000 l    d  .group	0000000000000000 .group
0000000000000000 l    d  .group	0000000000000000 .group
0000000000000000 l    d  .group	0000000000000000 .group
0000000000000000 l    d  .group	0000000000000000 .group
0000000000000000 l    d  .group	0000000000000000 .group
0000000000000000 l    d  .group	0000000000000000 .group
0000000000000000 l    d  .group	0000000000000000 .group
0000000000000000 l    d  .group	0000000000000000 .group
0000000000000000 l    d  .group	0000000000000000 .group
0000000000000000 l    d  .group	0000000000000000 .group
0000000000000000 l    d  .group	0000000000000000 .group
0000000000000000 l    d  .group	0000000000000000 .group
0000000000000000 l    d  .group	0000000000000000 .group
0000000000000000 l    d  .group	0000000000000000 .group
0000000000000000 l    d  .group	0000000000000000 .group
0000000000000000 l    d  .group	0000000000000000 .group
0000000000000000 l    d  .group	0000000000000000 .group
0000000000000000 l    d  .group	0000000000000000 .group
0000000000000000 l    d  .group	0000000000000000 .group
0000000000000000 l    d  .group	0000000000000000 .group
0000000000000000 l    d  .group	0000000000000000 .group
0000000000000000 l    d  .group	0000000000000000 .group
0000000000000000 l    d  .group	0000000000000000 .group
0000000000000000 l    d  .group	0000000000000000 .group
0000000000000000 l    d  .group	0000000000000000 .group
0000000000000000 l    d  .group	0000000000000000 .group
0000000000000000 l    d  .group	0000000000000000 .group
0000000000000000 l    d  .group	0000000000000000 .group
0000000000000000 l    d  .group	0000000000000000 .group
0000000000000000 l    d  .group	0000000000000000 .group
0000000000000000 l    d  .group	0000000000000000 .group
0000000000000000 l    d  .group	0000000000000000 .group
0000000000000000 l    d  .group	0000000000000000 .group
0000000000000000 l    d  .group	0000000000000000 .group
0000000000000000 l    d  .group	0000000000000000 .group
0000000000000000 l    d  .group	0000000000000000 .group
0000000000000000 l    d  .group	0000000000000000 .group
0000000000000000 l    d  .group	0000000000000000 .group
0000000000000000 l    d  .group	0000000000000000 .group
0000000000000000 l    d  .group	0000000000000000 .group
0000000000000000 l    d  .group	0000000000000000 .group
0000000000000000 l    d  .group	0000000000000000 .group
0000000000000000 l    d  .group	0000000000000000 .group
0000000000000000 l    d  .group	0000000000000000 .group
0000000000000000 l    d  .group	0000000000000000 .group
0000000000000000 l    d  .group	0000000000000000 .group
0000000000000000 l    d  .group	0000000000000000 .group
0000000000000000 l    d  .group	0000000000000000 .group
0000000000000000 l    d  .group	0000000000000000 .group
0000000000000000 l    d  .group	0000000000000000 .group
0000000000000000 l    d  .group	0000000000000000 .group
0000000000000000 l    d  .group	0000000000000000 .group
0000000000000000 l    d  .group	0000000000000000 .group
0000000000000000 l    d  .group	0000000000000000 .group
0000000000000000 l    d  .group	0000000000000000 .group
0000000000000000 l    d  .group	0000000000000000 .group
0000000000000000 l    d  .group	0000000000000000 .group
0000000000000000 l    d  .group	0000000000000000 .group
0000000000000000 l    d  .group	0000000000000000 .group
0000000000000000 l    d  .group	0000000000000000 .group
0000000000000000 l    d  .group	0000000000000000 .group
0000000000000000 l    d  .group	0000000000000000 .group
0000000000000000 l    d  .group	0000000000000000 .group
0000000000000000 l    d  .group	0000000000000000 .group
0000000000000000 l    d  .group	0000000000000000 .group
0000000000000000 l    d  .group	0000000000000000 .group
0000000000000000 l    d  .group	0000000000000000 .group
0000000000000000 l    d  .group	0000000000000000 .group
0000000000000000 l    d  .group	0000000000000000 .group
0000000000000000 l    d  .group	0000000000000000 .group
0000000000000000 l    d  .group	0000000000000000 .group
0000000000000000 l    d  .group	0000000000000000 .group
0000000000000000 l    d  .group	0000000000000000 .group
0000000000000000 l    d  .group	0000000000000000 .group
0000000000000000 l    d  .group	0000000000000000 .group
0000000000000000 l    d  .group	0000000000000000 .group
0000000000000000 l    d  .group	0000000000000000 .group
0000000000000000 l    d  .group	0000000000000000 .group
0000000000000000 l    d  .group	0000000000000000 .group
0000000000000000 l    d  .group	0000000000000000 .group
0000000000000000 l    d  .group	0000000000000000 .group
0000000000000000 l    d  .group	0000000000000000 .group
0000000000000000 l    d  .group	0000000000000000 .group
0000000000000000 l    d  .group	0000000000000000 .group
0000000000000000 l    d  .group	0000000000000000 .group
0000000000000000 l    d  .group	0000000000000000 .group
0000000000000000 l    d  .group	0000000000000000 .group
0000000000000000 l    d  .group	0000000000000000 .group
0000000000000000 l    d  .group	0000000000000000 .group
0000000000000000 l    d  .group	0000000000000000 .group
0000000000000000 l    d  .group	0000000000000000 .group
0000000000000000 l    d  .group	0000000000000000 .group
0000000000000000 l    d  .group	0000000000000000 .group
0000000000000000 l    d  .group	0000000000000000 .group
0000000000000000 l    d  .group	0000000000000000 .group
0000000000000000 l    d  .group	0000000000000000 .group
0000000000000000 l    d  .group	0000000000000000 .group
0000000000000000 l    d  .group	0000000000000000 .group
0000000000000000 l    d  .group	0000000000000000 .group
0000000000000000 l    d  .group	0000000000000000 .group
0000000000000000 l    d  .group	0000000000000000 .group
0000000000000000 l    d  .group	0000000000000000 .group
0000000000000000 l    d  .group	0000000000000000 .group
0000000000000000 l    d  .group	0000000000000000 .group
0000000000000000 l    d  .group	0000000000000000 .group
0000000000000000 l    d  .group	0000000000000000 .group
0000000000000000 l    d  .group	0000000000000000 .group
0000000000000000 l    d  .group	0000000000000000 .group
0000000000000000 l    d  .group	0000000000000000 .group
0000000000000000 l    d  .group	0000000000000000 .group
0000000000000000 l    d  .group	0000000000000000 .group
0000000000000000 l    d  .group	0000000000000000 .group
0000000000000000 l    d  .group	0000000000000000 .group
0000000000000000 l    d  .group	0000000000000000 .group
0000000000000000 l    d  .group	0000000000000000 .group
0000000000000000 l    d  .group	0000000000000000 .group
0000000000000000 l    d  .group	0000000000000000 .group
0000000000000000 l    d  .group	0000000000000000 .group
0000000000000000 l    d  .group	0000000000000000 .group
0000000000000000 l    d  .group	0000000000000000 .group
0000000000000000 l    d  .group	0000000000000000 .group
0000000000000000 l    d  .group	0000000000000000 .group
0000000000000000 l    d  .group	0000000000000000 .group
0000000000000000 l    d  .group	0000000000000000 .group
0000000000000000 l    d  .group	0000000000000000 .group
0000000000000000 l    d  .group	0000000000000000 .group
0000000000000000 l    d  .group	0000000000000000 .group
0000000000000000 l    d  .group	0000000000000000 .group
0000000000000000 l    d  .group	0000000000000000 .group
0000000000000000 l    d  .group	0000000000000000 .group
0000000000000000 l    d  .group	0000000000000000 .group
0000000000000000 l    d  .group	0000000000000000 .group
0000000000000000 l    d  .group	0000000000000000 .group
0000000000000000 l    d  .group	0000000000000000 .group
0000000000000000 l    d  .group	0000000000000000 .group
0000000000000000 l    d  .group	0000000000000000 .group
0000000000000000 l    d  .group	0000000000000000 .group
0000000000000000 l    d  .group	0000000000000000 .group
0000000000000000 l    d  .group	0000000000000000 .group
0000000000000000 l    d  .group	0000000000000000 .group
0000000000000000 l    d  .group	0000000000000000 .group
0000000000000000 l    d  .group	0000000000000000 .group
0000000000000000 l    d  .group	0000000000000000 .group
0000000000000000 l    d  .group	0000000000000000 .group
0000000000000000 l    d  .group	0000000000000000 .group
0000000000000000 l    d  .group	0000000000000000 .group
0000000000000000 l    d  .group	0000000000000000 .group
0000000000000000 l    d  .group	0000000000000000 .group
0000000000000000 l    d  .group	0000000000000000 .group
0000000000000000 l    d  .group	0000000000000000 .group
0000000000000000 l    d  .group	0000000000000000 .group
0000000000000000 l    d  .group	0000000000000000 .group
0000000000000000 l    d  .group	0000000000000000 .group
0000000000000000 l    d  .group	0000000000000000 .group
0000000000000000 l    d  .group	0000000000000000 .group
0000000000000000 l    d  .group	0000000000000000 .group
0000000000000000 l    d  .group	0000000000000000 .group
0000000000000000 l    d  .group	0000000000000000 .group
0000000000000000 l    d  .group	0000000000000000 .group
0000000000000000 l    d  .group	0000000000000000 .group
0000000000000000 l    d  .group	0000000000000000 .group
0000000000000000 l    d  .group	0000000000000000 .group
0000000000000000 l    d  .group	0000000000000000 .group
0000000000000000 l    d  .group	0000000000000000 .group
0000000000000000 l    d  .group	0000000000000000 .group
0000000000000000 l    d  .group	0000000000000000 .group
0000000000000000 l    d  .group	0000000000000000 .group
0000000000000000 l    d  .group	0000000000000000 .group
0000000000000000 l    d  .group	0000000000000000 .group
0000000000000000 l    d  .group	0000000000000000 .group
0000000000000000 l    d  .group	0000000000000000 .group
0000000000000000 l    d  .group	0000000000000000 .group
0000000000000000 l    d  .group	0000000000000000 .group
0000000000000000 l    d  .group	0000000000000000 .group
0000000000000000 l    d  .group	0000000000000000 .group
0000000000000000 l    d  .group	0000000000000000 .group
0000000000000000 l    d  .group	0000000000000000 .group
0000000000000000 l    d  .group	0000000000000000 .group
0000000000000000 l    d  .group	0000000000000000 .group
0000000000000000 l    d  .group	0000000000000000 .group
0000000000000000 l    d  .group	0000000000000000 .group
0000000000000000 l    d  .group	0000000000000000 .group
0000000000000000 l    d  .group	0000000000000000 .group
0000000000000000 l    d  .group	0000000000000000 .group
0000000000000000 l    d  .group	0000000000000000 .group
0000000000000000 l    d  .group	0000000000000000 .group
0000000000000000 l    d  .group	0000000000000000 .group
0000000000000000 l    d  .group	0000000000000000 .group
0000000000000000 l    d  .group	0000000000000000 .group
0000000000000000 l    d  .group	0000000000000000 .group
0000000000000000 l    d  .group	0000000000000000 .group
0000000000000000 l    d  .group	0000000000000000 .group
0000000000000000 l    d  .group	0000000000000000 .group
0000000000000000 l    d  .group	0000000000000000 .group
0000000000000000 l    d  .group	0000000000000000 .group
0000000000000000 l    d  .group	0000000000000000 .group
0000000000000000 l    d  .group	0000000000000000 .group
0000000000000000 l    d  .group	0000000000000000 .group
0000000000000000 l    d  .group	0000000000000000 .group
0000000000000000 l    d  .group	0000000000000000 .group
0000000000000000 l    d  .group	0000000000000000 .group
0000000000000000 l    d  .group	0000000000000000 .group
0000000000000000 l    d  .group	0000000000000000 .group
0000000000000000 l    d  .group	0000000000000000 .group
0000000000000000 l    d  .group	0000000000000000 .group
0000000000000000 l    d  .group	0000000000000000 .group
0000000000000000 l    d  .group	0000000000000000 .group
0000000000000000 l    d  .group	0000000000000000 .group
0000000000000000 l    d  .group	0000000000000000 .group
0000000000000000 l    d  .group	0000000000000000 .group
0000000000000000 l    d  .group	0000000000000000 .group
0000000000000000 l    d  .group	0000000000000000 .group
0000000000000000 l    d  .group	0000000000000000 .group
0000000000000000 l    d  .group	0000000000000000 .group
0000000000000000 l    d  .group	0000000000000000 .group
0000000000000000 l    d  .group	0000000000000000 .group
0000000000000000 l    d  .group	0000000000000000 .group
0000000000000000 l    d  .group	0000000000000000 .group
0000000000000000 l    d  .group	0000000000000000 .group
0000000000000000 l    d  .group	0000000000000000 .group
0000000000000000 l    d  .group	0000000000000000 .group
0000000000000000 l    d  .group	0000000000000000 .group
0000000000000000 l    d  .group	0000000000000000 .group
0000000000000000 l    d  .group	0000000000000000 .group
0000000000000000 l    d  .group	0000000000000000 .group
0000000000000000 l    d  .group	0000000000000000 .group
0000000000000000 l    d  .group	0000000000000000 .group
0000000000000000 l    d  .group	0000000000000000 .group
0000000000000000 l    d  .group	0000000000000000 .group
0000000000000000 l    d  .group	0000000000000000 .group
0000000000000000 l    d  .group	0000000000000000 .group
0000000000000000 l    d  .group	0000000000000000 .group
0000000000000000 l    d  .group	0000000000000000 .group
0000000000000000 l    d  .group	0000000000000000 .group
0000000000000000 l    d  .group	0000000000000000 .group
0000000000000000 l    d  .group	0000000000000000 .group
0000000000000000 l    d  .group	0000000000000000 .group
0000000000000000 l    d  .group	0000000000000000 .group
0000000000000000 l    d  .group	0000000000000000 .group
0000000000000000 l    d  .group	0000000000000000 .group
0000000000000000 l    d  .group	0000000000000000 .group
0000000000000000 l    d  .group	0000000000000000 .group
0000000000000000 l    d  .group	0000000000000000 .group
0000000000000000 l    d  .group	0000000000000000 .group
0000000000000000 l    d  .group	0000000000000000 .group
0000000000000000 l    d  .group	0000000000000000 .group
0000000000000000 l    d  .group	0000000000000000 .group
0000000000000000 l    d  .group	0000000000000000 .group
0000000000000000 l    d  .group	0000000000000000 .group
0000000000000000 l    d  .group	0000000000000000 .group
0000000000000000 l    d  .group	0000000000000000 .group
0000000000000000 l    d  .group	0000000000000000 .group
0000000000000000 l    d  .group	0000000000000000 .group
0000000000000000 l    d  .group	0000000000000000 .group
0000000000000000 l    d  .group	0000000000000000 .group
0000000000000000 l    d  .group	0000000000000000 .group
0000000000000000 l    d  .group	0000000000000000 .group
0000000000000000 l    d  .group	0000000000000000 .group
0000000000000000 l    d  .group	0000000000000000 .group
0000000000000000 l    d  .group	0000000000000000 .group
0000000000000000 l    d  .group	0000000000000000 .group
0000000000000000 l    d  .group	0000000000000000 .group
0000000000000000 l    d  .group	0000000000000000 .group
0000000000000000 l    d  .group	0000000000000000 .group
0000000000000000 l    d  .group	0000000000000000 .group
0000000000000000 l    d  .group	0000000000000000 .group
0000000000000000 l    d  .group	0000000000000000 .group
0000000000000000 l    d  .group	0000000000000000 .group
0000000000000000 l    d  .group	0000000000000000 .group
0000000000000000 l    d  .group	0000000000000000 .group
0000000000000000 l    d  .group	0000000000000000 .group
0000000000000000 l    d  .group	0000000000000000 .group
0000000000000000 l    d  .group	0000000000000000 .group
0000000000000000 l    d  .group	0000000000000000 .group
0000000000000000 l    d  .group	0000000000000000 .group
0000000000000000 l    d  .group	0000000000000000 .group
0000000000000000 l    d  .group	0000000000000000 .group
0000000000000000 l    d  .group	0000000000000000 .group
0000000000000000 l    d  .group	0000000000000000 .group
0000000000000000 l    d  .group	0000000000000000 .group
0000000000000000 l    d  .group	0000000000000000 .group
0000000000000000 l    d  .group	0000000000000000 .group
0000000000000000 l    d  .group	0000000000000000 .group
0000000000000000 l    d  .group	0000000000000000 .group
0000000000000000 l    d  .group	0000000000000000 .group
0000000000000000 l    d  .group	0000000000000000 .group
0000000000000000 l    d  .group	0000000000000000 .group
0000000000000000 l    d  .group	0000000000000000 .group
0000000000000000 l    d  .group	0000000000000000 .group
0000000000000000 l    d  .group	0000000000000000 .group
0000000000000000 l    d  .group	0000000000000000 .group
0000000000000000 l    d  .group	0000000000000000 .group
0000000000000000 l    d  .group	0000000000000000 .group
0000000000000000 l    d  .group	0000000000000000 .group
0000000000000000 l    d  .group	0000000000000000 .group
0000000000000000 l    d  .group	0000000000000000 .group
0000000000000000 l    d  .group	0000000000000000 .group
0000000000000000 l    d  .group	0000000000000000 .group
0000000000000000 l    d  .group	0000000000000000 .group
0000000000000000 l    d  .group	0000000000000000 .group
0000000000000000 l    d  .group	0000000000000000 .group
0000000000000000 l    d  .group	0000000000000000 .group
0000000000000000 l    d  .group	0000000000000000 .group
0000000000000000 l    d  .group	0000000000000000 .group
0000000000000000 l    d  .group	0000000000000000 .group
0000000000000000 l    d  .group	0000000000000000 .group
0000000000000000 l    d  .group	0000000000000000 .group
0000000000000000 l    d  .group	0000000000000000 .group
0000000000000000 l    d  .group	0000000000000000 .group
0000000000000000 l    d  .group	0000000000000000 .group
0000000000000000 l    d  .group	0000000000000000 .group
0000000000000000 l    d  .group	0000000000000000 .group
0000000000000000 l    d  .group	0000000000000000 .group
0000000000000000 l    d  .group	0000000000000000 .group
0000000000000000 l    d  .group	0000000000000000 .group
0000000000000000 l    d  .group	0000000000000000 .group
0000000000000000 l    d  .group	0000000000000000 .group
0000000000000000 l    d  .group	0000000000000000 .group
0000000000000000 l    d  .group	0000000000000000 .group
0000000000000000 l    d  .group	0000000000000000 .group
0000000000000000 l    d  .group	0000000000000000 .group
0000000000000000 l    d  .group	0000000000000000 .group
0000000000000000 l    d  .group	0000000000000000 .group
0000000000000000 l    d  .group	0000000000000000 .group
0000000000000000 l    d  .group	0000000000000000 .group
0000000000000000 l    d  .group	0000000000000000 .group
0000000000000000 l    d  .group	0000000000000000 .group
0000000000000000 l    d  .group	0000000000000000 .group
0000000000000000 l    d  .group	0000000000000000 .group
0000000000000000 l    d  .group	0000000000000000 .group
0000000000000000 l    d  .group	0000000000000000 .group
0000000000000000 l    d  .group	0000000000000000 .group
0000000000000000 l    d  .group	0000000000000000 .group
0000000000000000 l    d  .group	0000000000000000 .group
0000000000000000 l    d  .group	0000000000000000 .group
0000000000000000 l    d  .group	0000000000000000 .group
0000000000000000 l    d  .group	0000000000000000 .group
0000000000000000 l    d  .group	0000000000000000 .group
0000000000000000 l    d  .group	0000000000000000 .group
0000000000000000 l    d  .group	0000000000000000 .group
0000000000000000 l    d  .group	0000000000000000 .group
0000000000000000 l    d  .group	0000000000000000 .group
0000000000000000 l    d  .group	0000000000000000 .group
0000000000000000 l    d  .group	0000000000000000 .group
0000000000000000 l    d  .group	0000000000000000 .group
0000000000000000 l    d  .group	0000000000000000 .group
0000000000000000 l    d  .group	0000000000000000 .group
0000000000000000 l    d  .group	0000000000000000 .group
0000000000000000 l    d  .group	0000000000000000 .group
0000000000000000 l    d  .group	0000000000000000 .group
0000000000000000 l    d  .group	0000000000000000 .group
0000000000000000 l    d  .group	0000000000000000 .group
0000000000000000 l    d  .group	0000000000000000 .group
0000000000000000 l    d  .group	0000000000000000 .group
0000000000000000 l    d  .group	0000000000000000 .group
0000000000000000 l    d  .group	0000000000000000 .group
0000000000000000 l    d  .group	0000000000000000 .group
0000000000000000 l    d  .group	0000000000000000 .group
0000000000000000 l    d  .group	0000000000000000 .group
0000000000000000 l    d  .group	0000000000000000 .group
0000000000000000 l    d  .group	0000000000000000 .group
0000000000000000 l    d  .group	0000000000000000 .group
0000000000000000 l    d  .group	0000000000000000 .group
0000000000000000 l    d  .group	0000000000000000 .group
0000000000000000 l    d  .group	0000000000000000 .group
0000000000000000 l    d  .group	0000000000000000 .group
0000000000000000 l    d  .group	0000000000000000 .group
0000000000000000 l    d  .group	0000000000000000 .group
0000000000000000 l    d  .group	0000000000000000 .group
0000000000000000 l    d  .group	0000000000000000 .group
0000000000000000 l    d  .group	0000000000000000 .group
0000000000000000 l    d  .group	0000000000000000 .group
0000000000000000 l    d  .group	0000000000000000 .group
0000000000000000 l    d  .group	0000000000000000 .group
0000000000000000 l    d  .group	0000000000000000 .group
0000000000000000 l    d  .group	0000000000000000 .group
0000000000000000 l    d  .group	0000000000000000 .group
0000000000000000 l    d  .group	0000000000000000 .group
0000000000000000 l    d  .group	0000000000000000 .group
0000000000000000 l    d  .group	0000000000000000 .group
0000000000000000 l    d  .group	0000000000000000 .group
0000000000000000 l    d  .group	0000000000000000 .group
0000000000000000 l    d  .group	0000000000000000 .group
0000000000000000 l    d  .group	0000000000000000 .group
0000000000000000 l    d  .group	0000000000000000 .group
0000000000000000 l    d  .group	0000000000000000 .group
0000000000000000 l    d  .group	0000000000000000 .group
0000000000000000 l    d  .group	0000000000000000 .group
0000000000000000 l    d  .group	0000000000000000 .group
0000000000000000 l    d  .group	0000000000000000 .group
0000000000000000 l    d  .group	0000000000000000 .group
0000000000000000 l    d  .group	0000000000000000 .group
0000000000000000 l    d  .group	0000000000000000 .group
0000000000000000 l    d  .group	0000000000000000 .group
0000000000000000 l    d  .group	0000000000000000 .group
0000000000000000 l    d  .group	0000000000000000 .group
0000000000000000 l    d  .group	0000000000000000 .group
0000000000000000 l    d  .group	0000000000000000 .group
0000000000000000 l    d  .group	0000000000000000 .group
0000000000000000 l    d  .group	0000000000000000 .group
0000000000000000 l    d  .group	0000000000000000 .group
0000000000000000 l    d  .group	0000000000000000 .group
0000000000000000 l    d  .group	0000000000000000 .group
0000000000000000 l    d  .group	0000000000000000 .group
0000000000000000 l    d  .group	0000000000000000 .group
0000000000000000 l    d  .group	0000000000000000 .group
0000000000000000 l    d  .group	0000000000000000 .group
0000000000000000 l    d  .group	0000000000000000 .group
0000000000000000 l    d  .group	0000000000000000 .group
0000000000000000 l    d  .group	0000000000000000 .group
0000000000000000 l    d  .group	0000000000000000 .group
0000000000000000 l    d  .group	0000000000000000 .group
0000000000000000 l    d  .group	0000000000000000 .group
0000000000000000 l    d  .group	0000000000000000 .group
0000000000000000 l    d  .group	0000000000000000 .group
0000000000000000 l    d  .group	0000000000000000 .group
0000000000000000 l    d  .group	0000000000000000 .group
0000000000000000 l    d  .group	0000000000000000 .group
0000000000000000 l    d  .group	0000000000000000 .group
0000000000000000 l    d  .group	0000000000000000 .group
0000000000000000 l    d  .group	0000000000000000 .group
0000000000000000 l    d  .group	0000000000000000 .group
0000000000000000 l    d  .group	0000000000000000 .group
0000000000000000 l    d  .group	0000000000000000 .group
0000000000000000 l    d  .group	0000000000000000 .group
0000000000000000 l    d  .group	0000000000000000 .group
0000000000000000 l    d  .group	0000000000000000 .group
0000000000000000 l    d  .group	0000000000000000 .group
0000000000000000 l    d  .group	0000000000000000 .group
0000000000000000 l    d  .group	0000000000000000 .group
0000000000000000 l    d  .group	0000000000000000 .group
0000000000000000 l    d  .group	0000000000000000 .group
0000000000000000 l    d  .group	0000000000000000 .group
0000000000000000 l    d  .group	0000000000000000 .group
0000000000000000 l    d  .group	0000000000000000 .group
0000000000000000 l    d  .group	0000000000000000 .group
0000000000000000 l    d  .group	0000000000000000 .group
0000000000000000 l    d  .group	0000000000000000 .group
0000000000000000 l    d  .group	0000000000000000 .group
0000000000000000 l    d  .group	0000000000000000 .group
0000000000000000 l    d  .group	0000000000000000 .group
0000000000000000 l    d  .group	0000000000000000 .group
0000000000000000 l    d  .group	0000000000000000 .group
0000000000000000 l    d  .group	0000000000000000 .group
0000000000000000 l    d  .group	0000000000000000 .group
0000000000000000 l    d  .group	0000000000000000 .group
0000000000000000 l    d  .group	0000000000000000 .group
0000000000000000 l    d  .group	0000000000000000 .group
0000000000000000 l    d  .group	0000000000000000 .group
0000000000000000 l    d  .group	0000000000000000 .group
0000000000000000 l    d  .group	0000000000000000 .group
0000000000000000 l    d  .group	0000000000000000 .group
0000000000000000 l    d  .group	0000000000000000 .group
0000000000000000 l    d  .group	0000000000000000 .group
0000000000000000 l    d  .group	0000000000000000 .group
0000000000000000 l    d  .group	0000000000000000 .group
0000000000000000 l    d  .group	0000000000000000 .group
0000000000000000 l    d  .group	0000000000000000 .group
0000000000000000 l    d  .group	0000000000000000 .group
0000000000000000 l    d  .group	0000000000000000 .group
0000000000000000 l    d  .group	0000000000000000 .group
0000000000000000 l    d  .group	0000000000000000 .group
0000000000000000 l    d  .group	0000000000000000 .group
0000000000000000 l    d  .group	0000000000000000 .group
0000000000000000 l    d  .group	0000000000000000 .group
0000000000000000 l    d  .group	0000000000000000 .group
0000000000000000 l    d  .group	0000000000000000 .group
0000000000000000 l    d  .group	0000000000000000 .group
0000000000000000 l    d  .group	0000000000000000 .group
0000000000000000 l    d  .group	0000000000000000 .group
0000000000000000 l    d  .group	0000000000000000 .group
0000000000000000 l    d  .group	0000000000000000 .group
0000000000000000 l    d  .group	0000000000000000 .group
0000000000000000 l    d  .group	0000000000000000 .group
0000000000000000 l    d  .group	0000000000000000 .group
0000000000000000 l    d  .group	0000000000000000 .group
0000000000000000 l    d  .group	0000000000000000 .group
0000000000000000 l    d  .group	0000000000000000 .group
0000000000000000 l    d  .group	0000000000000000 .group
0000000000000000 l    d  .group	0000000000000000 .group
0000000000000000 l    d  .group	0000000000000000 .group
0000000000000000 l    d  .group	0000000000000000 .group
0000000000000000 l    d  .group	0000000000000000 .group
0000000000000000 l    d  .group	0000000000000000 .group
0000000000000000 l    d  .group	0000000000000000 .group
0000000000000000 l    d  .group	0000000000000000 .group
0000000000000000 l    d  .group	0000000000000000 .group
0000000000000000 l    d  .group	0000000000000000 .group
0000000000000000 l    d  .group	0000000000000000 .group
0000000000000000 l    d  .group	0000000000000000 .group
0000000000000000 l    d  .group	0000000000000000 .group
0000000000000000 l    d  .group	0000000000000000 .group
0000000000000000 l    d  .group	0000000000000000 .group
0000000000000000 l    d  .group	0000000000000000 .group
0000000000000000 l    d  .group	0000000000000000 .group
0000000000000000 l    d  .group	0000000000000000 .group
0000000000000000 l    d  .group	0000000000000000 .group
0000000000000000 l    d  .group	0000000000000000 .group
0000000000000000 l    d  .group	0000000000000000 .group
0000000000000000 l    d  .group	0000000000000000 .group
0000000000000000 l    d  .group	0000000000000000 .group
0000000000000000 l    d  .group	0000000000000000 .group
0000000000000000 l    d  .group	0000000000000000 .group
0000000000000000 l    d  .group	0000000000000000 .group
0000000000000000 l    d  .group	0000000000000000 .group
0000000000000000 l    d  .group	0000000000000000 .group
0000000000000000 l    d  .group	0000000000000000 .group
0000000000000000 l    d  .group	0000000000000000 .group
0000000000000000 l    d  .group	0000000000000000 .group
0000000000000000 l    d  .group	0000000000000000 .group
0000000000000000 l    d  .group	0000000000000000 .group
0000000000000000 l    d  .group	0000000000000000 .group
0000000000000000 l    d  .group	0000000000000000 .group
0000000000000000 l    d  .group	0000000000000000 .group
0000000000000000 l    d  .group	0000000000000000 .group
0000000000000000 l    d  .group	0000000000000000 .group
0000000000000000 l    d  .group	0000000000000000 .group
0000000000000000 l    d  .group	0000000000000000 .group
0000000000000000 l    d  .group	0000000000000000 .group
0000000000000000 l    d  .group	0000000000000000 .group
0000000000000000 l    d  .group	0000000000000000 .group
0000000000000000 l    d  .group	0000000000000000 .group
0000000000000000 l    d  .group	0000000000000000 .group
0000000000000000 l    d  .group	0000000000000000 .group
0000000000000000 l    d  .group	0000000000000000 .group
0000000000000000 l    d  .group	0000000000000000 .group
0000000000000000 l    d  .group	0000000000000000 .group
0000000000000000 l    d  .group	0000000000000000 .group
0000000000000000 l    d  .group	0000000000000000 .group
0000000000000000 l    d  .group	0000000000000000 .group
0000000000000000 l    d  .group	0000000000000000 .group
0000000000000000 l    d  .group	0000000000000000 .group
0000000000000000 l    d  .group	0000000000000000 .group
0000000000000000 l    d  .group	0000000000000000 .group
0000000000000000 l    d  .group	0000000000000000 .group
0000000000000000 l    d  .group	0000000000000000 .group
0000000000000000 l    d  .group	0000000000000000 .group
0000000000000000 l    d  .group	0000000000000000 .group
0000000000000000 l    d  .group	0000000000000000 .group
0000000000000000 l    d  .group	0000000000000000 .group
0000000000000000 l    d  .group	0000000000000000 .group
0000000000000000 l    d  .group	0000000000000000 .group
0000000000000000 l    d  .group	0000000000000000 .group
0000000000000000 l    d  .group	0000000000000000 .group
0000000000000000 l    d  .group	0000000000000000 .group
0000000000000000 l    d  .group	0000000000000000 .group
0000000000000000 l    d  .group	0000000000000000 .group
0000000000000000 l    d  .group	0000000000000000 .group
0000000000000000 l    d  .group	0000000000000000 .group
0000000000000000 l    d  .group	0000000000000000 .group
0000000000000000 l    d  .group	0000000000000000 .group
0000000000000000 l    d  .group	0000000000000000 .group
0000000000000000 l    d  .group	0000000000000000 .group
0000000000000000 l    d  .group	0000000000000000 .group
0000000000000000 l    d  .group	0000000000000000 .group
0000000000000000 l    d  .group	0000000000000000 .group
0000000000000000 l    d  .group	0000000000000000 .group
0000000000000000 l    d  .group	0000000000000000 .group
0000000000000000 l    d  .group	0000000000000000 .group
0000000000000000 l    d  .group	0000000000000000 .group
0000000000000000 l    d  .group	0000000000000000 .group
0000000000000000 l    d  .group	0000000000000000 .group
0000000000000000 l    d  .group	0000000000000000 .group
0000000000000000 l    d  .group	0000000000000000 .group
0000000000000000 l    d  .group	0000000000000000 .group
0000000000000000 l    d  .group	0000000000000000 .group
0000000000000000 l    d  .group	0000000000000000 .group
0000000000000000 l    d  .group	0000000000000000 .group
0000000000000000 l    d  .group	0000000000000000 .group
0000000000000000 l    d  .group	0000000000000000 .group
0000000000000000 l    d  .group	0000000000000000 .group
0000000000000000 l    d  .group	0000000000000000 .group
0000000000000000 l    d  .group	0000000000000000 .group
0000000000000000 l    d  .group	0000000000000000 .group
0000000000000000 l    d  .group	0000000000000000 .group
0000000000000000 l    d  .group	0000000000000000 .group
0000000000000000 l    d  .group	0000000000000000 .group
0000000000000000 l    d  .group	0000000000000000 .group
0000000000000000 l    d  .group	0000000000000000 .group
0000000000000000 l    d  .group	0000000000000000 .group
0000000000000000 l    d  .group	0000000000000000 .group
0000000000000000 l    d  .group	0000000000000000 .group
0000000000000000 l    d  .group	0000000000000000 .group
0000000000000000 l    d  .group	0000000000000000 .group
0000000000000000 l    d  .group	0000000000000000 .group
0000000000000000 l    d  .group	0000000000000000 .group
0000000000000000 l    d  .group	0000000000000000 .group
0000000000000000 l    d  .group	0000000000000000 .group
0000000000000000 l    d  .group	0000000000000000 .group
0000000000000000 l    d  .group	0000000000000000 .group
0000000000000000 l    d  .group	0000000000000000 .group
0000000000000000 l    d  .group	0000000000000000 .group
0000000000000000 l    d  .group	0000000000000000 .group
0000000000000000 l    d  .group	0000000000000000 .group
0000000000000000 l    d  .group	0000000000000000 .group
0000000000000000 l    d  .group	0000000000000000 .group
0000000000000000 l    d  .group	0000000000000000 .group
0000000000000000 l    d  .group	0000000000000000 .group
0000000000000000 l    d  .group	0000000000000000 .group
0000000000000000 l    d  .group	0000000000000000 .group
0000000000000000 l    d  .group	0000000000000000 .group
0000000000000000 l    d  .group	0000000000000000 .group
0000000000000000 l    d  .group	0000000000000000 .group
0000000000000000 l    d  .group	0000000000000000 .group
0000000000000000 l    d  .group	0000000000000000 .group
0000000000000000 l    d  .group	0000000000000000 .group
0000000000000000 l    d  .group	0000000000000000 .group
0000000000000000 l    d  .group	0000000000000000 .group
0000000000000000 l    d  .group	0000000000000000 .group
0000000000000000 l    d  .group	0000000000000000 .group
0000000000000000 l    d  .group	0000000000000000 .group
0000000000000000 l    d  .group	0000000000000000 .group
0000000000000000 l    d  .group	0000000000000000 .group
0000000000000000 l    d  .group	0000000000000000 .group
0000000000000000 l    d  .group	0000000000000000 .group
0000000000000000 l    d  .group	0000000000000000 .group
0000000000000000 l    d  .group	0000000000000000 .group
0000000000000000 l    d  .group	0000000000000000 .group
0000000000000000 l    d  .group	0000000000000000 .group
0000000000000000 l    d  .group	0000000000000000 .group
0000000000000000 l    d  .group	0000000000000000 .group
0000000000000000 l    d  .group	0000000000000000 .group
0000000000000000 l    d  .group	0000000000000000 .group
0000000000000000 l    d  .group	0000000000000000 .group
0000000000000000 l    d  .group	0000000000000000 .group
0000000000000000 l    d  .group	0000000000000000 .group
0000000000000000 l    d  .group	0000000000000000 .group
0000000000000000 l    d  .group	0000000000000000 .group
0000000000000000 l    d  .group	0000000000000000 .group
0000000000000000 l    d  .group	0000000000000000 .group
0000000000000000 l    d  .group	0000000000000000 .group
0000000000000000 l    d  .group	0000000000000000 .group
0000000000000000 l    d  .group	0000000000000000 .group
0000000000000000 l    d  .group	0000000000000000 .group
0000000000000000 l    d  .group	0000000000000000 .group
0000000000000000 l    d  .group	0000000000000000 .group
0000000000000000 l    d  .group	0000000000000000 .group
0000000000000000 l    d  .group	0000000000000000 .group
0000000000000000 l    d  .group	0000000000000000 .group
0000000000000000 l    d  .group	0000000000000000 .group
0000000000000000 l    d  .group	0000000000000000 .group
0000000000000000 l    d  .group	0000000000000000 .group
0000000000000000 l    d  .group	0000000000000000 .group
0000000000000000 l    d  .group	0000000000000000 .group
0000000000000000 l    d  .group	0000000000000000 .group
0000000000000000 l    d  .group	0000000000000000 .group
0000000000000000 l    d  .group	0000000000000000 .group
0000000000000000 l    d  .group	0000000000000000 .group
0000000000000000 l    d  .group	0000000000000000 .group
0000000000000000 l    d  .group	0000000000000000 .group
0000000000000000 l    d  .group	0000000000000000 .group
0000000000000000 l    d  .group	0000000000000000 .group
0000000000000000 l    d  .group	0000000000000000 .group
0000000000000000 l    d  .group	0000000000000000 .group
0000000000000000 l    d  .group	0000000000000000 .group
0000000000000000 l    d  .group	0000000000000000 .group
0000000000000000 l    d  .group	0000000000000000 .group
0000000000000000 l    d  .group	0000000000000000 .group
0000000000000000 l    d  .group	0000000000000000 .group
0000000000000000 l    d  .group	0000000000000000 .group
0000000000000000 l    d  .group	0000000000000000 .group
0000000000000000 l    d  .group	0000000000000000 .group
0000000000000000 l    d  .group	0000000000000000 .group
0000000000000000 l    d  .group	0000000000000000 .group
0000000000000000 l    d  .group	0000000000000000 .group
0000000000000000 l    d  .group	0000000000000000 .group
0000000000000000 l    d  .group	0000000000000000 .group
0000000000000000 l    d  .group	0000000000000000 .group
0000000000000000 l    d  .group	0000000000000000 .group
0000000000000000 l    d  .group	0000000000000000 .group
0000000000000000 l    d  .group	0000000000000000 .group
0000000000000000 l    d  .group	0000000000000000 .group
0000000000000000 l    d  .group	0000000000000000 .group
0000000000000000 l    d  .group	0000000000000000 .group
0000000000000000 l    d  .group	0000000000000000 .group
0000000000000000 l    d  .group	0000000000000000 .group
0000000000000000 l    d  .group	0000000000000000 .group
0000000000000000 l    d  .group	0000000000000000 .group
0000000000000000 l    d  .group	0000000000000000 .group
0000000000000000 l    d  .group	0000000000000000 .group
0000000000000000 l    d  .group	0000000000000000 .group
0000000000000000 l    d  .group	0000000000000000 .group
0000000000000000 l    d  .group	0000000000000000 .group
0000000000000000 l    d  .group	0000000000000000 .group
0000000000000000 l    d  .group	0000000000000000 .group
0000000000000000 l    d  .group	0000000000000000 .group
0000000000000000 l    d  .group	0000000000000000 .group
0000000000000000 l    d  .group	0000000000000000 .group
0000000000000000 l    d  .group	0000000000000000 .group
0000000000000000 l    d  .group	0000000000000000 .group
0000000000000000 l    d  .group	0000000000000000 .group
0000000000000000 l    d  .group	0000000000000000 .group
0000000000000000 l    d  .group	0000000000000000 .group
0000000000000000 l    d  .group	0000000000000000 .group
0000000000000000 l    d  .group	0000000000000000 .group
0000000000000000 l    d  .group	0000000000000000 .group
0000000000000000 l    d  .group	0000000000000000 .group
0000000000000000 l    d  .group	0000000000000000 .group
0000000000000000 l    d  .group	0000000000000000 .group
0000000000000000 l    d  .group	0000000000000000 .group
0000000000000000 l    d  .group	0000000000000000 .group
0000000000000000 l    d  .group	0000000000000000 .group
0000000000000000 l    d  .group	0000000000000000 .group
0000000000000000 l    d  .group	0000000000000000 .group
0000000000000000 l    d  .group	0000000000000000 .group
0000000000000000 l    d  .group	0000000000000000 .group
0000000000000000 l    d  .group	0000000000000000 .group
0000000000000000 l    d  .group	0000000000000000 .group
0000000000000000 l    d  .group	0000000000000000 .group
0000000000000000 l    d  .group	0000000000000000 .group
0000000000000000 l    d  .group	0000000000000000 .group
0000000000000000 l    d  .group	0000000000000000 .group
0000000000000000 l    d  .group	0000000000000000 .group
0000000000000000 l    d  .group	0000000000000000 .group
0000000000000000 l    d  .group	0000000000000000 .group
0000000000000000 l    d  .group	0000000000000000 .group
0000000000000000 l    d  .group	0000000000000000 .group
0000000000000000 l    d  .group	0000000000000000 .group
0000000000000000 l    d  .group	0000000000000000 .group
0000000000000000 l    d  .group	0000000000000000 .group
0000000000000000 l    d  .group	0000000000000000 .group
0000000000000000 l    d  .group	0000000000000000 .group
0000000000000000 l    d  .group	0000000000000000 .group
0000000000000000 l    d  .group	0000000000000000 .group
0000000000000000 l    d  .group	0000000000000000 .group
0000000000000000 l    d  .group	0000000000000000 .group
0000000000000000  w    F .text._ZnwmPv	0000000000000012 _ZnwmPv
0000000000000000  w    F .text._ZdlPvS_	000000000000000f _ZdlPvS_
0000000000000000  w    F .text._ZNSt11char_traitsIcE6assignERcRKc	000000000000001c _ZNSt11char_traitsIcE6assignERcRKc
0000000000000000  w    F .text._ZNSt11char_traitsIcE6lengthEPKc	000000000000004f _ZNSt11char_traitsIcE6lengthEPKc
0000000000000000  w    F .text._ZN9__gnu_cxx11char_traitsIcE6lengthEPKc	0000000000000069 _ZN9__gnu_cxx11char_traitsIcE6lengthEPKc
0000000000000000  w    F .text._ZNSt11char_traitsIcE4copyEPcPKcm	0000000000000040 _ZNSt11char_traitsIcE4copyEPcPKcm
0000000000000000         *UND*	0000000000000000 _GLOBAL_OFFSET_TABLE_
0000000000000000         *UND*	0000000000000000 memcpy
0000000000000000  w    F .text._ZSt7forwardIiEOT_RNSt16remove_referenceIS0_E4typeE	000000000000000e _ZSt7forwardIiEOT_RNSt16remove_referenceIS0_E4typeE
0000000000000000  w    F .text._ZNSt12experimental10filesystem2v17__cxx114pathD2Ev	000000000000002b _ZNSt12experimental10filesystem2v17__cxx114pathD2Ev
0000000000000000  w    F .text._ZNSt6vectorINSt12experimental10filesystem2v17__cxx114path5_CmptESaIS5_EED2Ev	0000000000000044 _ZNSt6vectorINSt12experimental10filesystem2v17__cxx114path5_CmptESaIS5_EED1Ev
0000000000000000  w    F .text._ZNSt7__cxx1112basic_stringIcSt11char_traitsIcESaIcEED2Ev	0000000000000027 _ZNSt7__cxx1112basic_stringIcSt11char_traitsIcESaIcEED1Ev
0000000000000000  w    F .text._ZNSt12experimental10filesystem2v17__cxx114pathD2Ev	000000000000002b _ZNSt12experimental10filesystem2v17__cxx114pathD1Ev
0000000000000000  w    F .text._ZNSt12experimental10filesystem2v17__cxx114pathC2Ev	0000000000000033 _ZNSt12experimental10filesystem2v17__cxx114pathC2Ev
0000000000000000  w    F .text._ZNSt7__cxx1112basic_stringIcSt11char_traitsIcESaIcEEC2Ev	0000000000000086 _ZNSt7__cxx1112basic_stringIcSt11char_traitsIcESaIcEEC1Ev
0000000000000000  w    F .text._ZNSt6vectorINSt12experimental10filesystem2v17__cxx114path5_CmptESaIS5_EEC2Ev	000000000000001b _ZNSt6vectorINSt12experimental10filesystem2v17__cxx114path5_CmptESaIS5_EEC1Ev
0000000000000000  w    F .text._ZNSt12experimental10filesystem2v17__cxx114pathC2Ev	0000000000000033 _ZNSt12experimental10filesystem2v17__cxx114pathC1Ev
0000000000000000  w    F .text._ZSt4moveIRNSt7__cxx1112basic_stringIcSt11char_traitsIcESaIcEEEEONSt16remove_referenceIT_E4typeEOS8_	000000000000000e _ZSt4moveIRNSt7__cxx1112basic_stringIcSt11char_traitsIcESaIcEEEEONSt16remove_referenceIT_E4typeEOS8_
0000000000000000  w    F .text._ZNSt12experimental10filesystem2v17__cxx114pathC2EONSt7__cxx1112basic_stringIcSt11char_traitsIcESaIcEEE	0000000000000083 _ZNSt12experimental10filesystem2v17__cxx114pathC2EONSt7__cxx1112basic_stringIcSt11char_traitsIcESaIcEEE
0000000000000000  w    O .data.rel.local.DW.ref.__gxx_personality_v0	0000000000000008 .hidden DW.ref.__gxx_personality_v0
0000000000000000  w    F .text._ZNSt7__cxx1112basic_stringIcSt11char_traitsIcESaIcEEC2EOS4_	0000000000000106 _ZNSt7__cxx1112basic_stringIcSt11char_traitsIcESaIcEEC1EOS4_
0000000000000000         *UND*	0000000000000000 _ZNSt12experimental10filesystem2v17__cxx114path14_M_split_cmptsEv
0000000000000000         *UND*	0000000000000000 _Unwind_Resume
0000000000000000         *UND*	0000000000000000 __gxx_personality_v0
0000000000000000  w    F .text._ZNSt12experimental10filesystem2v17__cxx114pathC2EONSt7__cxx1112basic_stringIcSt11char_traitsIcESaIcEEE	0000000000000083 _ZNSt12experimental10filesystem2v17__cxx114pathC1EONSt7__cxx1112basic_stringIcSt11char_traitsIcESaIcEEE
0000000000000000  w    F .text._ZNKSt12experimental10filesystem2v17__cxx114pathcvNSt7__cxx1112basic_stringIcSt11char_traitsIcESaIcEEEEv	0000000000000029 _ZNKSt12experimental10filesystem2v17__cxx114pathcvNSt7__cxx1112basic_stringIcSt11char_traitsIcESaIcEEEEv
0000000000000000  w    F .text._ZNSt7__cxx1112basic_stringIcSt11char_traitsIcESaIcEEC2ERKS4_	00000000000000e5 _ZNSt7__cxx1112basic_stringIcSt11char_traitsIcESaIcEEC1ERKS4_
0000000000000000  w    F .text._ZNSt12experimental10filesystem2v17__cxx114path10_S_convertEPKcNS3_17__null_terminatedE	000000000000008a _ZNSt12experimental10filesystem2v17__cxx114path10_S_convertEPKcNS3_17__null_terminatedE
0000000000000000         *UND*	0000000000000000 _ZNSaIcEC1Ev
0000000000000000  w    F .text._ZNSt7__cxx1112basic_stringIcSt11char_traitsIcESaIcEEC2EPKcRKS3_	0000000000000097 _ZNSt7__cxx1112basic_stringIcSt11char_traitsIcESaIcEEC1EPKcRKS3_
0000000000000000         *UND*	0000000000000000 _ZNSaIcED1Ev
0000000000000000         *UND*	0000000000000000 __stack_chk_fail
0000000000000000  w    F .text._ZNSt12experimental10filesystem2v17__cxx11eqERKNS2_4pathES5_	000000000000002a _ZNSt12experimental10filesystem2v17__cxx11eqERKNS2_4pathES5_
0000000000000000         *UND*	0000000000000000 _ZNKSt12experimental10filesystem2v17__cxx114path7compareERKS3_
0000000000000000  w    F .text._ZNKSt12experimental10filesystem2v17__cxx114path4stemEv	00000000000000cb _ZNKSt12experimental10filesystem2v17__cxx114path4stemEv
0000000000000000         *UND*	0000000000000000 _ZNKSt12experimental10filesystem2v17__cxx114path17_M_find_extensionEv
0000000000000000  w    F .text._ZNKSt7__cxx1112basic_stringIcSt11char_traitsIcESaIcEE6substrEmm	0000000000000055 _ZNKSt7__cxx1112basic_stringIcSt11char_traitsIcESaIcEE6substrEmm
0000000000000000  w    F .text._ZNKSt12experimental10filesystem2v17__cxx1115directory_entry4pathEv	000000000000000e _ZNKSt12experimental10filesystem2v17__cxx1115directory_entry4pathEv
0000000000000000  w    F .text._ZNSt12__shared_ptrINSt12experimental10filesystem2v17__cxx114_DirELN9__gnu_cxx12_Lock_policyE2EED2Ev	000000000000001f _ZNSt12__shared_ptrINSt12experimental10filesystem2v17__cxx114_DirELN9__gnu_cxx12_Lock_policyE2EED2Ev
0000000000000000  w    F .text._ZNSt14__shared_countILN9__gnu_cxx12_Lock_policyE2EED2Ev	000000000000002a _ZNSt14__shared_countILN9__gnu_cxx12_Lock_policyE2EED1Ev
0000000000000000  w    F .text._ZNSt12__shared_ptrINSt12experimental10filesystem2v17__cxx114_DirELN9__gnu_cxx12_Lock_policyE2EED2Ev	000000000000001f _ZNSt12__shared_ptrINSt12experimental10filesystem2v17__cxx114_DirELN9__gnu_cxx12_Lock_policyE2EED1Ev
0000000000000000  w    F .text._ZNSt10shared_ptrINSt12experimental10filesystem2v17__cxx114_DirEED2Ev	000000000000001b _ZNSt10shared_ptrINSt12experimental10filesystem2v17__cxx114_DirEED2Ev
0000000000000000  w    F .text._ZNSt10shared_ptrINSt12experimental10filesystem2v17__cxx114_DirEED2Ev	000000000000001b _ZNSt10shared_ptrINSt12experimental10filesystem2v17__cxx114_DirEED1Ev
0000000000000000  w    F .text._ZNSt12experimental10filesystem2v17__cxx1118directory_iteratorD2Ev	000000000000001b _ZNSt12experimental10filesystem2v17__cxx1118directory_iteratorD2Ev
0000000000000000  w    F .text._ZNSt12experimental10filesystem2v17__cxx1118directory_iteratorD2Ev	000000000000001b _ZNSt12experimental10filesystem2v17__cxx1118directory_iteratorD1Ev
0000000000000000  w    F .text._ZNSt12experimental10filesystem2v17__cxx1118directory_iteratorC2ERKNS2_4pathE	000000000000002d _ZNSt12experimental10filesystem2v17__cxx1118directory_iteratorC2ERKNS2_4pathE
0000000000000000         *UND*	0000000000000000 _ZNSt12experimental10filesystem2v17__cxx1118directory_iteratorC1ERKNS2_4pathENS1_17directory_optionsEPSt10error_code
0000000000000000  w    F .text._ZNSt12experimental10filesystem2v17__cxx1118directory_iteratorC2ERKNS2_4pathE	000000000000002d _ZNSt12experimental10filesystem2v17__cxx1118directory_iteratorC1ERKNS2_4pathE
0000000000000000  w    F .text._ZNSt12experimental10filesystem2v17__cxx1118directory_iteratorC2EOS3_	0000000000000026 _ZNSt12experimental10filesystem2v17__cxx1118directory_iteratorC2EOS3_
0000000000000000  w    F .text._ZNSt10shared_ptrINSt12experimental10filesystem2v17__cxx114_DirEEC2EOS5_	0000000000000034 _ZNSt10shared_ptrINSt12experimental10filesystem2v17__cxx114_DirEEC1EOS5_
0000000000000000  w    F .text._ZNSt12experimental10filesystem2v17__cxx1118directory_iteratorC2EOS3_	0000000000000026 _ZNSt12experimental10filesystem2v17__cxx1118directory_iteratorC1EOS3_
0000000000000000  w    F .text._ZNSt12experimental10filesystem2v17__cxx115beginENS2_18directory_iteratorE	0000000000000029 _ZNSt12experimental10filesystem2v17__cxx115beginENS2_18directory_iteratorE
0000000000000000  w    F .text._ZNSt10shared_ptrINSt12experimental10filesystem2v17__cxx114_DirEEC1Ev	000000000000001b _ZNSt10shared_ptrINSt12experimental10filesystem2v17__cxx114_DirEEC1Ev
0000000000000000  w    F .text._ZNSt12__shared_ptrINSt12experimental10filesystem2v17__cxx114_DirELN9__gnu_cxx12_Lock_policyE2EEC2Ev	000000000000002a _ZNSt12__shared_ptrINSt12experimental10filesystem2v17__cxx114_DirELN9__gnu_cxx12_Lock_policyE2EEC2Ev
0000000000000000  w    F .text._ZNSt12experimental10filesystem2v17__cxx1118directory_iteratorC2Ev	000000000000001b _ZNSt12experimental10filesystem2v17__cxx1118directory_iteratorC2Ev
0000000000000000  w    F .text._ZNSt12experimental10filesystem2v17__cxx1118directory_iteratorC2Ev	000000000000001b _ZNSt12experimental10filesystem2v17__cxx1118directory_iteratorC1Ev
0000000000000000  w    F .text._ZNSt12experimental10filesystem2v17__cxx113endENS2_18directory_iteratorE	0000000000000039 _ZNSt12experimental10filesystem2v17__cxx113endENS2_18directory_iteratorE
0000000000000000  w    F .text._ZNSt12experimental10filesystem2v17__cxx11eqERKNS2_18directory_iteratorES5_	0000000000000052 _ZNSt12experimental10filesystem2v17__cxx11eqERKNS2_18directory_iteratorES5_
0000000000000000  w    F .text._ZNKSt12__shared_ptrINSt12experimental10filesystem2v17__cxx114_DirELN9__gnu_cxx12_Lock_policyE2EE12owner_beforeIS4_EEbRKS_IT_LS6_2EE	000000000000002d _ZNKSt12__shared_ptrINSt12experimental10filesystem2v17__cxx114_DirELN9__gnu_cxx12_Lock_policyE2EE12owner_beforeIS4_EEbRKS_IT_LS6_2EE
0000000000000000  w    F .text._ZNSt12experimental10filesystem2v17__cxx11neERKNS2_18directory_iteratorES5_	0000000000000028 _ZNSt12experimental10filesystem2v17__cxx11neERKNS2_18directory_iteratorES5_
0000000000000000 g     O .bss	0000000000000018 _Z12matrix_namesB5cxx11
0000000000000020 g     O .bss	0000000000000018 matrixSize
0000000000000040 g     O .bss	0000000000000018 valuesPtrs
0000000000000060 g     O .bss	0000000000000018 dvaluesPtrs
0000000000000080 g     O .bss	0000000000000018 colindPtrs
00000000000000a0 g     O .bss	0000000000000018 rowptrPtrs
00000000000000c0 g     O .bss	0000000000000018 valuesSize
00000000000000e0 g     O .bss	0000000000000018 dvaluesSize
0000000000000100 g     O .bss	0000000000000018 colindSize
0000000000000120 g     O .bss	0000000000000018 rowptrSize
0000000000000138 g     O .bss	0000000000000008 values_boneS10
0000000000000140 g     O .bss	0000000000000008 values_Emilia_923
0000000000000148 g     O .bss	0000000000000008 values_ldoor
0000000000000150 g     O .bss	0000000000000008 values_af_5_k101
0000000000000158 g     O .bss	0000000000000008 values_audikw_1
0000000000000160 g     O .bss	0000000000000008 dvalues_boneS10
0000000000000168 g     O .bss	0000000000000008 dvalues_Emilia_923
0000000000000170 g     O .bss	0000000000000008 dvalues_ldoor
0000000000000178 g     O .bss	0000000000000008 dvalues_af_5_k101
0000000000000180 g     O .bss	0000000000000008 dvalues_audikw_1
0000000000000188 g     O .bss	0000000000000008 rowptr_boneS10
0000000000000190 g     O .bss	0000000000000008 rowptr_Emilia_923
0000000000000198 g     O .bss	0000000000000008 rowptr_ldoor
00000000000001a0 g     O .bss	0000000000000008 rowptr_af_5_k101
00000000000001a8 g     O .bss	0000000000000008 rowptr_audikw_1
00000000000001b0 g     O .bss	0000000000000008 colind_boneS10
00000000000001b8 g     O .bss	0000000000000008 colind_Emilia_923
00000000000001c0 g     O .bss	0000000000000008 colind_ldoor
00000000000001c8 g     O .bss	0000000000000008 colind_af_5_k101
00000000000001d0 g     O .bss	0000000000000008 colind_audikw_1
0000000000000000  w    F .text._ZN3MPI8DatatypeD2Ev	0000000000000019 _ZN3MPI8DatatypeD2Ev
0000000000000000  w    O .data.rel.ro._ZTVN3MPI8DatatypeE	0000000000000100 _ZTVN3MPI8DatatypeE
0000000000000000  w    F .text._ZN3MPI8DatatypeD2Ev	0000000000000019 _ZN3MPI8DatatypeD1Ev
0000000000000000  w    F .text._ZN3MPI8DatatypeD0Ev	000000000000002b _ZN3MPI8DatatypeD0Ev
0000000000000000         *UND*	0000000000000000 _ZdlPvm
0000000000000000  w    F .text._ZN3MPI8DatatypeC2EP15ompi_datatype_t	0000000000000029 _ZN3MPI8DatatypeC2EP15ompi_datatype_t
0000000000000000  w    F .text._ZN3MPI8DatatypeC2EP15ompi_datatype_t	0000000000000029 _ZN3MPI8DatatypeC1EP15ompi_datatype_t
0000000000000000  w    F .text._ZN3MPI8DatatypeaSERKP15ompi_datatype_t	0000000000000021 _ZN3MPI8DatatypeaSERKP15ompi_datatype_t
0000000000000000  w    F .text._ZNK3MPI8DatatypecvP15ompi_datatype_tEv	0000000000000012 _ZNK3MPI8DatatypecvP15ompi_datatype_tEv
0000000000000000  w    F .text._ZN3MPI6StatusD2Ev	0000000000000019 _ZN3MPI6StatusD2Ev
0000000000000000  w    O .data.rel.ro.local._ZTVN3MPI6StatusE	0000000000000078 _ZTVN3MPI6StatusE
0000000000000000  w    F .text._ZN3MPI6StatusD2Ev	0000000000000019 _ZN3MPI6StatusD1Ev
0000000000000000  w    F .text._ZN3MPI6StatusD0Ev	000000000000002b _ZN3MPI6StatusD0Ev
0000000000000000  w    F .text._ZN3MPI6StatusaSERK20ompi_status_public_t	0000000000000031 _ZN3MPI6StatusaSERK20ompi_status_public_t
0000000000000000  w    F .text._ZN3MPI7RequestD2Ev	0000000000000019 _ZN3MPI7RequestD2Ev
0000000000000000  w    O .data.rel.ro.local._ZTVN3MPI7RequestE	0000000000000060 _ZTVN3MPI7RequestE
0000000000000000  w    F .text._ZN3MPI7RequestD2Ev	0000000000000019 _ZN3MPI7RequestD1Ev
0000000000000000  w    F .text._ZN3MPI7RequestD0Ev	000000000000002b _ZN3MPI7RequestD0Ev
0000000000000000  w    F .text._ZN3MPI7RequestC2EP14ompi_request_t	0000000000000029 _ZN3MPI7RequestC2EP14ompi_request_t
0000000000000000  w    F .text._ZN3MPI7RequestC2EP14ompi_request_t	0000000000000029 _ZN3MPI7RequestC1EP14ompi_request_t
0000000000000000  w    F .text._ZN3MPI8PrequestC2ERKP14ompi_request_t	0000000000000037 _ZN3MPI8PrequestC2ERKP14ompi_request_t
0000000000000000  w    O .data.rel.ro.local._ZTVN3MPI8PrequestE	0000000000000068 _ZTVN3MPI8PrequestE
0000000000000000  w    F .text._ZN3MPI8PrequestC2ERKP14ompi_request_t	0000000000000037 _ZN3MPI8PrequestC1ERKP14ompi_request_t
0000000000000000  w    F .text._ZN3MPI8PrequestD2Ev	0000000000000029 _ZN3MPI8PrequestD2Ev
0000000000000000  w    F .text._ZN3MPI8PrequestD2Ev	0000000000000029 _ZN3MPI8PrequestD1Ev
0000000000000000  w    F .text._ZN3MPI8PrequestD0Ev	000000000000002b _ZN3MPI8PrequestD0Ev
0000000000000000  w    F .text._ZN3MPI8GrequestD2Ev	0000000000000029 _ZN3MPI8GrequestD2Ev
0000000000000000  w    O .data.rel.ro.local._ZTVN3MPI8GrequestE	0000000000000068 _ZTVN3MPI8GrequestE
0000000000000000  w    F .text._ZN3MPI8GrequestD2Ev	0000000000000029 _ZN3MPI8GrequestD1Ev
0000000000000000  w    F .text._ZN3MPI8GrequestD0Ev	000000000000002b _ZN3MPI8GrequestD0Ev
0000000000000000  w    F .text._ZN3MPI5GroupC2EP12ompi_group_t	0000000000000029 _ZN3MPI5GroupC2EP12ompi_group_t
0000000000000000  w    O .data.rel.ro.local._ZTVN3MPI5GroupE	0000000000000058 _ZTVN3MPI5GroupE
0000000000000000  w    F .text._ZN3MPI5GroupC2EP12ompi_group_t	0000000000000029 _ZN3MPI5GroupC1EP12ompi_group_t
0000000000000000  w    F .text._ZN3MPI5GroupD2Ev	0000000000000019 _ZN3MPI5GroupD2Ev
0000000000000000  w    F .text._ZN3MPI5GroupD2Ev	0000000000000019 _ZN3MPI5GroupD1Ev
0000000000000000  w    F .text._ZN3MPI5GroupD0Ev	000000000000002b _ZN3MPI5GroupD0Ev
0000000000000000  w    F .text._ZNK3MPI5GroupcvP12ompi_group_tEv	0000000000000012 _ZNK3MPI5GroupcvP12ompi_group_tEv
0000000000000000  w    F .text._ZN3MPI9Comm_NullC2EP19ompi_communicator_t	0000000000000029 _ZN3MPI9Comm_NullC2EP19ompi_communicator_t
0000000000000000  w    O .data.rel.ro.local._ZTVN3MPI9Comm_NullE	0000000000000020 _ZTVN3MPI9Comm_NullE
0000000000000000  w    F .text._ZN3MPI9Comm_NullC2EP19ompi_communicator_t	0000000000000029 _ZN3MPI9Comm_NullC1EP19ompi_communicator_t
0000000000000000  w    F .text._ZN3MPI9Comm_NullD2Ev	0000000000000019 _ZN3MPI9Comm_NullD2Ev
0000000000000000  w    F .text._ZN3MPI9Comm_NullD2Ev	0000000000000019 _ZN3MPI9Comm_NullD1Ev
0000000000000000  w    F .text._ZN3MPI9Comm_NullD0Ev	000000000000002b _ZN3MPI9Comm_NullD0Ev
0000000000000000  w    F .text._ZNK3MPI9Comm_NullcvP19ompi_communicator_tEv	0000000000000012 _ZNK3MPI9Comm_NullcvP19ompi_communicator_tEv
0000000000000000  w    F .text._ZN3MPI4CommC2EP19ompi_communicator_t	0000000000000034 _ZN3MPI4CommC2EP19ompi_communicator_t
0000000000000000  w    O .data.rel.ro._ZTVN3MPI4CommE	00000000000001d0 _ZTVN3MPI4CommE
0000000000000000  w    F .text._ZN3MPI4CommC2EP19ompi_communicator_t	0000000000000034 _ZN3MPI4CommC1EP19ompi_communicator_t
0000000000000000  w    F .text._ZN3MPI3WinD2Ev	0000000000000019 _ZN3MPI3WinD2Ev
0000000000000000  w    O .data.rel.ro._ZTVN3MPI3WinE	00000000000000c0 _ZTVN3MPI3WinE
0000000000000000  w    F .text._ZN3MPI3WinD2Ev	0000000000000019 _ZN3MPI3WinD1Ev
0000000000000000  w    F .text._ZN3MPI3WinD0Ev	000000000000002b _ZN3MPI3WinD0Ev
0000000000000000  w    F .text._ZN3MPI10ErrhandlerD2Ev	0000000000000019 _ZN3MPI10ErrhandlerD2Ev
0000000000000000  w    O .data.rel.ro.local._ZTVN3MPI10ErrhandlerE	0000000000000028 _ZTVN3MPI10ErrhandlerE
0000000000000000  w    F .text._ZN3MPI10ErrhandlerD2Ev	0000000000000019 _ZN3MPI10ErrhandlerD1Ev
0000000000000000  w    F .text._ZN3MPI10ErrhandlerD0Ev	000000000000002b _ZN3MPI10ErrhandlerD0Ev
0000000000000000  w    F .text._ZN3MPI10ErrhandlerC2EP17ompi_errhandler_t	0000000000000029 _ZN3MPI10ErrhandlerC2EP17ompi_errhandler_t
0000000000000000  w    F .text._ZN3MPI10ErrhandlerC2EP17ompi_errhandler_t	0000000000000029 _ZN3MPI10ErrhandlerC1EP17ompi_errhandler_t
0000000000000000  w    F .text._ZNK3MPI10ErrhandlercvP17ompi_errhandler_tEv	0000000000000012 _ZNK3MPI10ErrhandlercvP17ompi_errhandler_tEv
0000000000000000  w    F .text._ZN3MPI4CommD2Ev	0000000000000029 _ZN3MPI4CommD2Ev
0000000000000000  w    F .text._ZN3MPI4CommD2Ev	0000000000000029 _ZN3MPI4CommD1Ev
0000000000000000  w    F .text._ZN3MPI4CommD0Ev	000000000000002b _ZN3MPI4CommD0Ev
0000000000000000  w    F .text._ZN3MPI9IntracommC2Ev	0000000000000029 _ZN3MPI9IntracommC2Ev
0000000000000000         *UND*	0000000000000000 _ZN3MPI4CommC2Ev
0000000000000000  w    O .data.rel.ro.local._ZTVN3MPI9IntracommE	0000000000000238 _ZTVN3MPI9IntracommE
0000000000000000  w    F .text._ZN3MPI9IntracommC2Ev	0000000000000029 _ZN3MPI9IntracommC1Ev
0000000000000000  w    F .text._ZN3MPI9IntracommD2Ev	0000000000000029 _ZN3MPI9IntracommD2Ev
0000000000000000  w    F .text._ZN3MPI9IntracommD2Ev	0000000000000029 _ZN3MPI9IntracommD1Ev
0000000000000000  w    F .text._ZN3MPI9IntracommD0Ev	000000000000002b _ZN3MPI9IntracommD0Ev
0000000000000000  w    F .text._ZN3MPI9IntercommC2EP19ompi_communicator_t	0000000000000034 _ZN3MPI9IntercommC2EP19ompi_communicator_t
0000000000000000  w    O .data.rel.ro.local._ZTVN3MPI9IntercommE	00000000000001f8 _ZTVN3MPI9IntercommE
0000000000000000  w    F .text._ZN3MPI9IntercommC2EP19ompi_communicator_t	0000000000000034 _ZN3MPI9IntercommC1EP19ompi_communicator_t
0000000000000000  w    F .text._ZN3MPI4InfoC2EP11ompi_info_t	0000000000000029 _ZN3MPI4InfoC2EP11ompi_info_t
0000000000000000  w    O .data.rel.ro.local._ZTVN3MPI4InfoE	0000000000000060 _ZTVN3MPI4InfoE
0000000000000000  w    F .text._ZN3MPI4InfoC2EP11ompi_info_t	0000000000000029 _ZN3MPI4InfoC1EP11ompi_info_t
0000000000000000  w    F .text._ZN3MPI4InfoD2Ev	0000000000000019 _ZN3MPI4InfoD2Ev
0000000000000000  w    F .text._ZN3MPI4InfoD2Ev	0000000000000019 _ZN3MPI4InfoD1Ev
0000000000000000  w    F .text._ZN3MPI4InfoD0Ev	000000000000002b _ZN3MPI4InfoD0Ev
0000000000000000  w    F .text._ZNK3MPI4InfocvP11ompi_info_tEv	0000000000000012 _ZNK3MPI4InfocvP11ompi_info_tEv
0000000000000000  w    F .text._ZNK3MPI8Datatype17Create_contiguousEi	0000000000000068 _ZNK3MPI8Datatype17Create_contiguousEi
0000000000000000         *UND*	0000000000000000 MPI_Type_contiguous
0000000000000000  w    F .text._ZNK3MPI8Datatype13Create_vectorEiii	0000000000000075 _ZNK3MPI8Datatype13Create_vectorEiii
0000000000000000         *UND*	0000000000000000 MPI_Type_vector
0000000000000000  w    F .text._ZNK3MPI8Datatype14Create_indexedEiPKiS2_	0000000000000078 _ZNK3MPI8Datatype14Create_indexedEiPKiS2_
0000000000000000         *UND*	0000000000000000 MPI_Type_indexed
0000000000000000  w    F .text._ZNK3MPI8Datatype15Create_hindexedEiPKiPKl	0000000000000078 _ZNK3MPI8Datatype15Create_hindexedEiPKiPKl
0000000000000000         *UND*	0000000000000000 MPI_Type_create_hindexed
0000000000000000  w    F .text._ZNK3MPI8Datatype14Create_hvectorEiil	0000000000000076 _ZNK3MPI8Datatype14Create_hvectorEiil
0000000000000000         *UND*	0000000000000000 MPI_Type_create_hvector
0000000000000000  w    F .text._ZNK3MPI8Datatype20Create_indexed_blockEiiPKi	0000000000000076 _ZNK3MPI8Datatype20Create_indexed_blockEiiPKi
0000000000000000         *UND*	0000000000000000 MPI_Type_create_indexed_block
0000000000000000  w    F .text._ZNK3MPI8Datatype14Create_resizedEll	0000000000000070 _ZNK3MPI8Datatype14Create_resizedEll
0000000000000000         *UND*	0000000000000000 MPI_Type_create_resized
0000000000000000  w    F .text._ZNK3MPI8Datatype8Get_sizeEv	000000000000004b _ZNK3MPI8Datatype8Get_sizeEv
0000000000000000         *UND*	0000000000000000 MPI_Type_size
0000000000000000  w    F .text._ZNK3MPI8Datatype10Get_extentERlS1_	0000000000000032 _ZNK3MPI8Datatype10Get_extentERlS1_
0000000000000000         *UND*	0000000000000000 MPI_Type_get_extent
0000000000000000  w    F .text._ZNK3MPI8Datatype15Get_true_extentERlS1_	0000000000000032 _ZNK3MPI8Datatype15Get_true_extentERlS1_
0000000000000000         *UND*	0000000000000000 MPI_Type_get_true_extent
0000000000000000  w    F .text._ZN3MPI8Datatype6CommitEv	000000000000001f _ZN3MPI8Datatype6CommitEv
0000000000000000         *UND*	0000000000000000 MPI_Type_commit
0000000000000000  w    F .text._ZNK3MPI8Datatype4PackEPKviPviRiRKNS_4CommE	0000000000000063 _ZNK3MPI8Datatype4PackEPKviPviRiRKNS_4CommE
0000000000000000         *UND*	0000000000000000 MPI_Pack
0000000000000000  w    F .text._ZNK3MPI8Datatype6UnpackEPKviPviRiRKNS_4CommE	0000000000000063 _ZNK3MPI8Datatype6UnpackEPKviPviRiRKNS_4CommE
0000000000000000         *UND*	0000000000000000 MPI_Unpack
0000000000000000  w    F .text._ZNK3MPI8Datatype9Pack_sizeEiRKNS_4CommE	0000000000000066 _ZNK3MPI8Datatype9Pack_sizeEiRKNS_4CommE
0000000000000000         *UND*	0000000000000000 MPI_Pack_size
0000000000000000  w    F .text._ZNK3MPI8Datatype13Pack_externalEPKcPKviPvlRl	0000000000000056 _ZNK3MPI8Datatype13Pack_externalEPKcPKviPvlRl
0000000000000000         *UND*	0000000000000000 MPI_Pack_external
0000000000000000  w    F .text._ZNK3MPI8Datatype18Pack_external_sizeEPKci	0000000000000057 _ZNK3MPI8Datatype18Pack_external_sizeEPKci
0000000000000000         *UND*	0000000000000000 MPI_Pack_external_size
0000000000000000  w    F .text._ZNK3MPI8Datatype15Unpack_externalEPKcPKvlRlPvi	0000000000000054 _ZNK3MPI8Datatype15Unpack_externalEPKcPKvlRlPvi
0000000000000000         *UND*	0000000000000000 MPI_Unpack_external
0000000000000000  w    F .text._ZNK3MPI8Datatype15Create_subarrayEiPKiS2_S2_i	000000000000008d _ZNK3MPI8Datatype15Create_subarrayEiPKiS2_S2_i
0000000000000000         *UND*	0000000000000000 MPI_Type_create_subarray
0000000000000000  w    F .text._ZNK3MPI8Datatype13Create_darrayEiiiPKiS2_S2_S2_i	00000000000000ab _ZNK3MPI8Datatype13Create_darrayEiiiPKiS2_S2_S2_i
0000000000000000         *UND*	0000000000000000 MPI_Type_create_darray
0000000000000000  w    F .text._ZNK3MPI8Datatype3DupEv	0000000000000063 _ZNK3MPI8Datatype3DupEv
0000000000000000         *UND*	0000000000000000 MPI_Type_dup
0000000000000000  w    F .text._ZN3MPI8Datatype11Delete_attrEi	0000000000000027 _ZN3MPI8Datatype11Delete_attrEi
0000000000000000         *UND*	0000000000000000 MPI_Type_delete_attr
0000000000000000  w    F .text._ZNK3MPI8Datatype8Get_attrEiPv	000000000000005b _ZNK3MPI8Datatype8Get_attrEiPv
0000000000000000         *UND*	0000000000000000 MPI_Type_get_attr
0000000000000000  w    F .text._ZNK3MPI8Datatype12Get_contentsEiiiPiPlPS0_	00000000000000d7 _ZNK3MPI8Datatype12Get_contentsEiiiPiPlPS0_
0000000000000000         *UND*	0000000000000000 _Znam
0000000000000000         *UND*	0000000000000000 MPI_Type_get_contents
0000000000000000         *UND*	0000000000000000 __cxa_throw_bad_array_new_length
0000000000000000         *UND*	0000000000000000 _ZdaPv
0000000000000000  w    F .text._ZNK3MPI8Datatype12Get_envelopeERiS1_S1_S1_	0000000000000042 _ZNK3MPI8Datatype12Get_envelopeERiS1_S1_S1_
0000000000000000         *UND*	0000000000000000 MPI_Type_get_envelope
0000000000000000  w    F .text._ZNK3MPI8Datatype8Get_nameEPcRi	0000000000000032 _ZNK3MPI8Datatype8Get_nameEPcRi
0000000000000000         *UND*	0000000000000000 MPI_Type_get_name
0000000000000000  w    F .text._ZN3MPI8Datatype8Set_attrEiPKv	000000000000002f _ZN3MPI8Datatype8Set_attrEiPKv
0000000000000000         *UND*	0000000000000000 MPI_Type_set_attr
0000000000000000  w    F .text._ZN3MPI8Datatype8Set_nameEPKc	000000000000002a _ZN3MPI8Datatype8Set_nameEPKc
0000000000000000         *UND*	0000000000000000 MPI_Type_set_name
0000000000000000  w    F .text._ZN3MPI14Is_initializedEv	0000000000000041 _ZN3MPI14Is_initializedEv
0000000000000000         *UND*	0000000000000000 MPI_Initialized
0000000000000000  w    F .text._ZN3MPI7Request4WaitERNS_6StatusE	000000000000002e _ZN3MPI7Request4WaitERNS_6StatusE
0000000000000000         *UND*	0000000000000000 MPI_Wait
0000000000000000  w    F .text._ZN3MPI7Request4WaitEv	0000000000000024 _ZN3MPI7Request4WaitEv
0000000000000000  w    F .text._ZN3MPI7Request4FreeEv	000000000000001f _ZN3MPI7Request4FreeEv
0000000000000000         *UND*	0000000000000000 MPI_Request_free
0000000000000000  w    F .text._ZN3MPI7Request4TestERNS_6StatusE	000000000000005c _ZN3MPI7Request4TestERNS_6StatusE
0000000000000000         *UND*	0000000000000000 MPI_Test
0000000000000000  w    F .text._ZN3MPI7Request4TestEv	0000000000000055 _ZN3MPI7Request4TestEv
0000000000000000  w    F .text._ZNK3MPI7Request6CancelEv	000000000000001f _ZNK3MPI7Request6CancelEv
0000000000000000         *UND*	0000000000000000 MPI_Cancel
0000000000000000  w    F .text._ZN3MPI8Prequest5StartEv	000000000000001f _ZN3MPI8Prequest5StartEv
0000000000000000         *UND*	0000000000000000 MPI_Start
0000000000000000  w    F .text._ZNK3MPI7Request10Get_statusERNS_6StatusE	0000000000000079 _ZNK3MPI7Request10Get_statusERNS_6StatusE
0000000000000000         *UND*	0000000000000000 MPI_Request_get_status
0000000000000000  w    F .text._ZNK3MPI7Request10Get_statusEv	0000000000000055 _ZNK3MPI7Request10Get_statusEv
0000000000000000  w    F .text._ZN3MPI8Grequest8CompleteEv	000000000000001f _ZN3MPI8Grequest8CompleteEv
0000000000000000         *UND*	0000000000000000 MPI_Grequest_complete
0000000000000000  w    F .text._ZNK3MPI4Comm4SendEPKviRKNS_8DatatypeEii	000000000000005f _ZNK3MPI4Comm4SendEPKviRKNS_8DatatypeEii
0000000000000000         *UND*	0000000000000000 MPI_Send
0000000000000000  w    F .text._ZNK3MPI4Comm4RecvEPviRKNS_8DatatypeEiiRNS_6StatusE	0000000000000075 _ZNK3MPI4Comm4RecvEPviRKNS_8DatatypeEiiRNS_6StatusE
0000000000000000         *UND*	0000000000000000 MPI_Recv
0000000000000000  w    F .text._ZNK3MPI4Comm4RecvEPviRKNS_8DatatypeEii	0000000000000068 _ZNK3MPI4Comm4RecvEPviRKNS_8DatatypeEii
0000000000000000  w    F .text._ZNK3MPI4Comm5BsendEPKviRKNS_8DatatypeEii	000000000000005f _ZNK3MPI4Comm5BsendEPKviRKNS_8DatatypeEii
0000000000000000         *UND*	0000000000000000 MPI_Bsend
0000000000000000  w    F .text._ZNK3MPI4Comm5SsendEPKviRKNS_8DatatypeEii	000000000000005f _ZNK3MPI4Comm5SsendEPKviRKNS_8DatatypeEii
0000000000000000         *UND*	0000000000000000 MPI_Ssend
0000000000000000  w    F .text._ZNK3MPI4Comm5RsendEPKviRKNS_8DatatypeEii	000000000000005f _ZNK3MPI4Comm5RsendEPKviRKNS_8DatatypeEii
0000000000000000         *UND*	0000000000000000 MPI_Rsend
0000000000000000  w    F .text._ZNK3MPI4Comm5IsendEPKviRKNS_8DatatypeEii	00000000000000a2 _ZNK3MPI4Comm5IsendEPKviRKNS_8DatatypeEii
0000000000000000         *UND*	0000000000000000 MPI_Isend
0000000000000000  w    F .text._ZNK3MPI4Comm6IbsendEPKviRKNS_8DatatypeEii	00000000000000a2 _ZNK3MPI4Comm6IbsendEPKviRKNS_8DatatypeEii
0000000000000000         *UND*	0000000000000000 MPI_Ibsend
0000000000000000  w    F .text._ZNK3MPI4Comm6IssendEPKviRKNS_8DatatypeEii	00000000000000a2 _ZNK3MPI4Comm6IssendEPKviRKNS_8DatatypeEii
0000000000000000         *UND*	0000000000000000 MPI_Issend
0000000000000000  w    F .text._ZNK3MPI4Comm6IrsendEPKviRKNS_8DatatypeEii	00000000000000a2 _ZNK3MPI4Comm6IrsendEPKviRKNS_8DatatypeEii
0000000000000000         *UND*	0000000000000000 MPI_Irsend
0000000000000000  w    F .text._ZNK3MPI4Comm5IrecvEPviRKNS_8DatatypeEii	00000000000000a2 _ZNK3MPI4Comm5IrecvEPviRKNS_8DatatypeEii
0000000000000000         *UND*	0000000000000000 MPI_Irecv
0000000000000000  w    F .text._ZNK3MPI4Comm6IprobeEiiRNS_6StatusE	0000000000000067 _ZNK3MPI4Comm6IprobeEiiRNS_6StatusE
0000000000000000         *UND*	0000000000000000 MPI_Iprobe
0000000000000000  w    F .text._ZNK3MPI4Comm6IprobeEii	000000000000005e _ZNK3MPI4Comm6IprobeEii
0000000000000000  w    F .text._ZNK3MPI4Comm5ProbeEiiRNS_6StatusE	0000000000000036 _ZNK3MPI4Comm5ProbeEiiRNS_6StatusE
0000000000000000         *UND*	0000000000000000 MPI_Probe
0000000000000000  w    F .text._ZNK3MPI4Comm5ProbeEii	000000000000002f _ZNK3MPI4Comm5ProbeEii
0000000000000000  w    F .text._ZNK3MPI4Comm9Send_initEPKviRKNS_8DatatypeEii	00000000000000a2 _ZNK3MPI4Comm9Send_initEPKviRKNS_8DatatypeEii
0000000000000000         *UND*	0000000000000000 MPI_Send_init
0000000000000000  w    F .text._ZNK3MPI4Comm10Bsend_initEPKviRKNS_8DatatypeEii	00000000000000a2 _ZNK3MPI4Comm10Bsend_initEPKviRKNS_8DatatypeEii
0000000000000000         *UND*	0000000000000000 MPI_Bsend_init
0000000000000000  w    F .text._ZNK3MPI4Comm10Ssend_initEPKviRKNS_8DatatypeEii	00000000000000a2 _ZNK3MPI4Comm10Ssend_initEPKviRKNS_8DatatypeEii
0000000000000000         *UND*	0000000000000000 MPI_Ssend_init
0000000000000000  w    F .text._ZNK3MPI4Comm10Rsend_initEPKviRKNS_8DatatypeEii	00000000000000a2 _ZNK3MPI4Comm10Rsend_initEPKviRKNS_8DatatypeEii
0000000000000000         *UND*	0000000000000000 MPI_Rsend_init
0000000000000000  w    F .text._ZNK3MPI4Comm9Recv_initEPviRKNS_8DatatypeEii	00000000000000a2 _ZNK3MPI4Comm9Recv_initEPviRKNS_8DatatypeEii
0000000000000000         *UND*	0000000000000000 MPI_Recv_init
0000000000000000  w    F .text._ZNK3MPI4Comm8SendrecvEPKviRKNS_8DatatypeEiiPviS5_iiRNS_6StatusE	0000000000000094 _ZNK3MPI4Comm8SendrecvEPKviRKNS_8DatatypeEiiPviS5_iiRNS_6StatusE
0000000000000000         *UND*	0000000000000000 MPI_Sendrecv
0000000000000000  w    F .text._ZNK3MPI4Comm8SendrecvEPKviRKNS_8DatatypeEiiPviS5_ii	0000000000000088 _ZNK3MPI4Comm8SendrecvEPKviRKNS_8DatatypeEiiPviS5_ii
0000000000000000  w    F .text._ZNK3MPI4Comm16Sendrecv_replaceEPviRKNS_8DatatypeEiiiiRNS_6StatusE	000000000000007b _ZNK3MPI4Comm16Sendrecv_replaceEPviRKNS_8DatatypeEiiiiRNS_6StatusE
0000000000000000         *UND*	0000000000000000 MPI_Sendrecv_replace
0000000000000000  w    F .text._ZNK3MPI4Comm16Sendrecv_replaceEPviRKNS_8DatatypeEiiii	000000000000006e _ZNK3MPI4Comm16Sendrecv_replaceEPviRKNS_8DatatypeEiiii
0000000000000000  w    F .text._ZNK3MPI4Comm9Get_groupEv	0000000000000063 _ZNK3MPI4Comm9Get_groupEv
0000000000000000         *UND*	0000000000000000 MPI_Comm_group
0000000000000000  w    F .text._ZNK3MPI4Comm8Get_sizeEv	000000000000004b _ZNK3MPI4Comm8Get_sizeEv
0000000000000000         *UND*	0000000000000000 MPI_Comm_size
0000000000000000  w    F .text._ZNK3MPI4Comm8Get_rankEv	000000000000004b _ZNK3MPI4Comm8Get_rankEv
0000000000000000         *UND*	0000000000000000 MPI_Comm_rank
0000000000000000  w    F .text._ZN3MPI4Comm4FreeEv	000000000000001f _ZN3MPI4Comm4FreeEv
0000000000000000         *UND*	0000000000000000 MPI_Comm_free
0000000000000000  w    F .text._ZNK3MPI4Comm8Is_interEv	0000000000000050 _ZNK3MPI4Comm8Is_interEv
0000000000000000         *UND*	0000000000000000 MPI_Comm_test_inter
0000000000000000  w    F .text._ZNK3MPI4Comm7BarrierEv	000000000000001f _ZNK3MPI4Comm7BarrierEv
0000000000000000         *UND*	0000000000000000 MPI_Barrier
0000000000000000  w    F .text._ZNK3MPI4Comm5BcastEPviRKNS_8DatatypeEi	0000000000000055 _ZNK3MPI4Comm5BcastEPviRKNS_8DatatypeEi
0000000000000000         *UND*	0000000000000000 MPI_Bcast
0000000000000000  w    F .text._ZNK3MPI4Comm6GatherEPKviRKNS_8DatatypeEPviS5_i	000000000000007a _ZNK3MPI4Comm6GatherEPKviRKNS_8DatatypeEPviS5_i
0000000000000000         *UND*	0000000000000000 MPI_Gather
0000000000000000  w    F .text._ZNK3MPI4Comm7GathervEPKviRKNS_8DatatypeEPvPKiS8_S5_i	0000000000000085 _ZNK3MPI4Comm7GathervEPKviRKNS_8DatatypeEPvPKiS8_S5_i
0000000000000000         *UND*	0000000000000000 MPI_Gatherv
0000000000000000  w    F .text._ZNK3MPI4Comm7ScatterEPKviRKNS_8DatatypeEPviS5_i	000000000000007a _ZNK3MPI4Comm7ScatterEPKviRKNS_8DatatypeEPviS5_i
0000000000000000         *UND*	0000000000000000 MPI_Scatter
0000000000000000  w    F .text._ZNK3MPI4Comm8ScattervEPKvPKiS4_RKNS_8DatatypeEPviS7_i	0000000000000084 _ZNK3MPI4Comm8ScattervEPKvPKiS4_RKNS_8DatatypeEPviS7_i
0000000000000000         *UND*	0000000000000000 MPI_Scatterv
0000000000000000  w    F .text._ZNK3MPI4Comm9AllgatherEPKviRKNS_8DatatypeEPviS5_	000000000000007a _ZNK3MPI4Comm9AllgatherEPKviRKNS_8DatatypeEPviS5_
0000000000000000         *UND*	0000000000000000 MPI_Allgather
0000000000000000  w    F .text._ZNK3MPI4Comm10AllgathervEPKviRKNS_8DatatypeEPvPKiS8_S5_	000000000000007d _ZNK3MPI4Comm10AllgathervEPKviRKNS_8DatatypeEPvPKiS8_S5_
0000000000000000         *UND*	0000000000000000 MPI_Allgatherv
0000000000000000  w    F .text._ZNK3MPI4Comm8AlltoallEPKviRKNS_8DatatypeEPviS5_	000000000000007a _ZNK3MPI4Comm8AlltoallEPKviRKNS_8DatatypeEPviS5_
0000000000000000         *UND*	0000000000000000 MPI_Alltoall
0000000000000000  w    F .text._ZNK3MPI4Comm9AlltoallvEPKvPKiS4_RKNS_8DatatypeEPvS4_S4_S7_	0000000000000083 _ZNK3MPI4Comm9AlltoallvEPKvPKiS4_RKNS_8DatatypeEPvS4_S4_S7_
0000000000000000         *UND*	0000000000000000 MPI_Alltoallv
0000000000000000  w    F .text._ZNK3MPI4Comm9AlltoallwEPKvPKiS4_PKNS_8DatatypeEPvS4_S4_S7_	0000000000000157 _ZNK3MPI4Comm9AlltoallwEPKvPKiS4_PKNS_8DatatypeEPvS4_S4_S7_
0000000000000000         *UND*	0000000000000000 MPI_Alltoallw
0000000000000000  w    F .text._ZNK3MPI4Comm6ReduceEPKvPviRKNS_8DatatypeERKNS_2OpEi	0000000000000075 _ZNK3MPI4Comm6ReduceEPKvPviRKNS_8DatatypeERKNS_2OpEi
0000000000000000  w    F .text._ZNK3MPI2OpcvP9ompi_op_tEv	0000000000000012 _ZNK3MPI2OpcvP9ompi_op_tEv
0000000000000000         *UND*	0000000000000000 MPI_Reduce
0000000000000000  w    F .text._ZNK3MPI4Comm9AllreduceEPKvPviRKNS_8DatatypeERKNS_2OpE	000000000000006b _ZNK3MPI4Comm9AllreduceEPKvPviRKNS_8DatatypeERKNS_2OpE
0000000000000000         *UND*	0000000000000000 MPI_Allreduce
0000000000000000  w    F .text._ZNK3MPI4Comm14Reduce_scatterEPKvPvPiRKNS_8DatatypeERKNS_2OpE	000000000000006d _ZNK3MPI4Comm14Reduce_scatterEPKvPvPiRKNS_8DatatypeERKNS_2OpE
0000000000000000         *UND*	0000000000000000 MPI_Reduce_scatter
0000000000000000  w    F .text._ZN3MPI4Comm10DisconnectEv	000000000000001f _ZN3MPI4Comm10DisconnectEv
0000000000000000         *UND*	0000000000000000 MPI_Comm_disconnect
0000000000000000  w    F .text._ZNK3MPI4Comm8Get_nameEPcRi	0000000000000032 _ZNK3MPI4Comm8Get_nameEPcRi
0000000000000000         *UND*	0000000000000000 MPI_Comm_get_name
0000000000000000  w    F .text._ZN3MPI4Comm8Set_nameEPKc	000000000000002a _ZN3MPI4Comm8Set_nameEPKc
0000000000000000         *UND*	0000000000000000 MPI_Comm_set_name
0000000000000000  w    F .text._ZNK3MPI4Comm12Get_topologyEv	000000000000004b _ZNK3MPI4Comm12Get_topologyEv
0000000000000000         *UND*	0000000000000000 MPI_Topo_test
0000000000000000  w    F .text._ZN3MPI4Comm5AbortEi	0000000000000027 _ZN3MPI4Comm5AbortEi
0000000000000000         *UND*	0000000000000000 MPI_Abort
0000000000000000  w    F .text._ZNK3MPI4Comm14Get_errhandlerEv	0000000000000063 _ZNK3MPI4Comm14Get_errhandlerEv
0000000000000000         *UND*	0000000000000000 MPI_Comm_get_errhandler
0000000000000000  w    F .text._ZN3MPI4Comm14Set_errhandlerERKNS_10ErrhandlerE	0000000000000035 _ZN3MPI4Comm14Set_errhandlerERKNS_10ErrhandlerE
0000000000000000         *UND*	0000000000000000 MPI_Comm_set_errhandler
0000000000000000  w    F .text._ZNK3MPI4Comm8Set_attrEiPKv	000000000000002f _ZNK3MPI4Comm8Set_attrEiPKv
0000000000000000         *UND*	0000000000000000 MPI_Comm_set_attr
0000000000000000  w    F .text._ZNK3MPI4Comm8Get_attrEiPv	000000000000005b _ZNK3MPI4Comm8Get_attrEiPv
0000000000000000         *UND*	0000000000000000 MPI_Comm_get_attr
0000000000000000  w    F .text._ZN3MPI4Comm11Delete_attrEi	0000000000000027 _ZN3MPI4Comm11Delete_attrEi
0000000000000000         *UND*	0000000000000000 MPI_Comm_delete_attr
0000000000000000  w    F .text._ZN3MPI9IntracommC2EP19ompi_communicator_t	00000000000000e3 _ZN3MPI9IntracommC2EP19ompi_communicator_t
0000000000000000         *UND*	0000000000000000 ompi_mpi_comm_null
0000000000000000  w    F .text._ZN3MPI9IntracommC2EP19ompi_communicator_t	00000000000000e3 _ZN3MPI9IntracommC1EP19ompi_communicator_t
0000000000000000  w    F .text._ZNK3MPI9Intracomm4ScanEPKvPviRKNS_8DatatypeERKNS_2OpE	000000000000006b _ZNK3MPI9Intracomm4ScanEPKvPviRKNS_8DatatypeERKNS_2OpE
0000000000000000         *UND*	0000000000000000 MPI_Scan
0000000000000000  w    F .text._ZNK3MPI9Intracomm6ExscanEPKvPviRKNS_8DatatypeERKNS_2OpE	000000000000006b _ZNK3MPI9Intracomm6ExscanEPKvPviRKNS_8DatatypeERKNS_2OpE
0000000000000000         *UND*	0000000000000000 MPI_Exscan
0000000000000000  w    F .text._ZNK3MPI9Intracomm5CloneEv	0000000000000093 _ZNK3MPI9Intracomm5CloneEv
0000000000000000         *UND*	0000000000000000 MPI_Comm_dup
0000000000000000         *UND*	0000000000000000 _Znwm
0000000000000000  w    F .text._ZNK3MPI9Intracomm6CreateERKNS_5GroupE	0000000000000076 _ZNK3MPI9Intracomm6CreateERKNS_5GroupE
0000000000000000         *UND*	0000000000000000 MPI_Comm_create
0000000000000000  w    F .text._ZNK3MPI9Intracomm5SplitEii	000000000000006c _ZNK3MPI9Intracomm5SplitEii
0000000000000000         *UND*	0000000000000000 MPI_Comm_split
0000000000000000  w    F .text._ZNK3MPI9Intracomm16Create_intercommEiRKNS_4CommEii	0000000000000092 _ZNK3MPI9Intracomm16Create_intercommEiRKNS_4CommEii
0000000000000000         *UND*	0000000000000000 MPI_Intercomm_create
0000000000000000  w    F .text._ZNK3MPI9Intracomm11Create_cartEiPKiPKbb	0000000000000103 _ZNK3MPI9Intracomm11Create_cartEiPKiPKbb
0000000000000000         *UND*	0000000000000000 MPI_Cart_create
0000000000000000  w    F .text._ZN3MPI8CartcommC2ERKP19ompi_communicator_t	00000000000000f3 _ZN3MPI8CartcommC1ERKP19ompi_communicator_t
0000000000000000  w    F .text._ZNK3MPI9Intracomm12Create_graphEiPKiS2_b	0000000000000086 _ZNK3MPI9Intracomm12Create_graphEiPKiS2_b
0000000000000000         *UND*	0000000000000000 MPI_Graph_create
0000000000000000  w    F .text._ZN3MPI9GraphcommC2ERKP19ompi_communicator_t	00000000000000f3 _ZN3MPI9GraphcommC1ERKP19ompi_communicator_t
0000000000000000  w    F .text._ZNK3MPI9Intracomm6AcceptEPKcRKNS_4InfoEi	000000000000008e _ZNK3MPI9Intracomm6AcceptEPKcRKNS_4InfoEi
0000000000000000         *UND*	0000000000000000 MPI_Comm_accept
0000000000000000  w    F .text._ZNK3MPI9Intracomm7ConnectEPKcRKNS_4InfoEi	000000000000008e _ZNK3MPI9Intracomm7ConnectEPKcRKNS_4InfoEi
0000000000000000         *UND*	0000000000000000 MPI_Comm_connect
0000000000000000  w    F .text._ZNK3MPI9Intracomm5SpawnEPKcPS2_iRKNS_4InfoEi	00000000000000a0 _ZNK3MPI9Intracomm5SpawnEPKcPS2_iRKNS_4InfoEi
0000000000000000         *UND*	0000000000000000 MPI_Comm_spawn
0000000000000000  w    F .text._ZNK3MPI9Intracomm5SpawnEPKcPS2_iRKNS_4InfoEiPi	00000000000000a9 _ZNK3MPI9Intracomm5SpawnEPKcPS2_iRKNS_4InfoEiPi
0000000000000000  w    F .text._ZN3MPI9Intracomm14Spawn_multipleEiPPKcPS3_PKiPKNS_4InfoEi	00000000000000c5 _ZN3MPI9Intracomm14Spawn_multipleEiPPKcPS3_PKiPKNS_4InfoEi
0000000000000000  w    F .text._ZN3MPI9Intracomm24convert_info_to_mpi_infoEiPKNS_4InfoE	000000000000008f _ZN3MPI9Intracomm24convert_info_to_mpi_infoEiPKNS_4InfoE
0000000000000000         *UND*	0000000000000000 MPI_Comm_spawn_multiple
0000000000000000  w    F .text._ZN3MPI9Intracomm14Spawn_multipleEiPPKcPS3_PKiPKNS_4InfoEiPi	00000000000000ce _ZN3MPI9Intracomm14Spawn_multipleEiPPKcPS3_PKiPKNS_4InfoEiPi
0000000000000000  w    F .text._ZN3MPI8CartcommC2ERKP19ompi_communicator_t	00000000000000f3 _ZN3MPI8CartcommC2ERKP19ompi_communicator_t
0000000000000000  w    O .data.rel.ro.local._ZTVN3MPI8CartcommE	0000000000000270 _ZTVN3MPI8CartcommE
0000000000000000  w    F .text._ZNK3MPI8Cartcomm7Get_dimEv	000000000000004b _ZNK3MPI8Cartcomm7Get_dimEv
0000000000000000         *UND*	0000000000000000 MPI_Cartdim_get
0000000000000000  w    F .text._ZNK3MPI8Cartcomm8Get_topoEiPiPbS1_	00000000000000fc _ZNK3MPI8Cartcomm8Get_topoEiPiPbS1_
0000000000000000         *UND*	0000000000000000 MPI_Cart_get
0000000000000000  w    F .text._ZNK3MPI8Cartcomm13Get_cart_rankEPKi	0000000000000053 _ZNK3MPI8Cartcomm13Get_cart_rankEPKi
0000000000000000         *UND*	0000000000000000 MPI_Cart_rank
0000000000000000  w    F .text._ZNK3MPI8Cartcomm10Get_coordsEiiPi	0000000000000033 _ZNK3MPI8Cartcomm10Get_coordsEiiPi
0000000000000000         *UND*	0000000000000000 MPI_Cart_coords
0000000000000000  w    F .text._ZNK3MPI8Cartcomm5ShiftEiiRiS1_	000000000000003e _ZNK3MPI8Cartcomm5ShiftEiiRiS1_
0000000000000000         *UND*	0000000000000000 MPI_Cart_shift
0000000000000000  w    F .text._ZNK3MPI8Cartcomm3SubEPKb	00000000000000ff _ZNK3MPI8Cartcomm3SubEPKb
0000000000000000         *UND*	0000000000000000 MPI_Cart_sub
0000000000000000  w    F .text._ZNK3MPI8Cartcomm3MapEiPKiPKb	00000000000000de _ZNK3MPI8Cartcomm3MapEiPKiPKb
0000000000000000         *UND*	0000000000000000 MPI_Cart_map
0000000000000000  w    F .text._ZNK3MPI8Cartcomm5CloneEv	0000000000000093 _ZNK3MPI8Cartcomm5CloneEv
0000000000000000  w    F .text._ZN3MPI9GraphcommC2ERKP19ompi_communicator_t	00000000000000f3 _ZN3MPI9GraphcommC2ERKP19ompi_communicator_t
0000000000000000  w    O .data.rel.ro.local._ZTVN3MPI9GraphcommE	0000000000000260 _ZTVN3MPI9GraphcommE
0000000000000000  w    F .text._ZNK3MPI9Graphcomm8Get_dimsEPiS1_	0000000000000032 _ZNK3MPI9Graphcomm8Get_dimsEPiS1_
0000000000000000         *UND*	0000000000000000 MPI_Graphdims_get
0000000000000000  w    F .text._ZNK3MPI9Graphcomm8Get_topoEiiPiS1_	000000000000003e _ZNK3MPI9Graphcomm8Get_topoEiiPiS1_
0000000000000000         *UND*	0000000000000000 MPI_Graph_get
0000000000000000  w    F .text._ZNK3MPI9Graphcomm19Get_neighbors_countEi	0000000000000050 _ZNK3MPI9Graphcomm19Get_neighbors_countEi
0000000000000000         *UND*	0000000000000000 MPI_Graph_neighbors_count
0000000000000000  w    F .text._ZNK3MPI9Graphcomm13Get_neighborsEiiPi	0000000000000033 _ZNK3MPI9Graphcomm13Get_neighborsEiiPi
0000000000000000         *UND*	0000000000000000 MPI_Graph_neighbors
0000000000000000  w    F .text._ZNK3MPI9Graphcomm3MapEiPKiS2_	0000000000000061 _ZNK3MPI9Graphcomm3MapEiPKiS2_
0000000000000000         *UND*	0000000000000000 MPI_Graph_map
0000000000000000  w    F .text._ZNK3MPI9Graphcomm5CloneEv	0000000000000093 _ZNK3MPI9Graphcomm5CloneEv
0000000000000000  w    F .text._ZNK3MPI9Intercomm5CloneEv	0000000000000072 _ZNK3MPI9Intercomm5CloneEv
0000000000000000  w    F .text._ZNK3MPI9Intercomm15Get_remote_sizeEv	000000000000004b _ZNK3MPI9Intercomm15Get_remote_sizeEv
0000000000000000         *UND*	0000000000000000 MPI_Comm_remote_size
0000000000000000  w    F .text._ZNK3MPI9Intercomm16Get_remote_groupEv	0000000000000063 _ZNK3MPI9Intercomm16Get_remote_groupEv
0000000000000000         *UND*	0000000000000000 MPI_Comm_remote_group
0000000000000000  w    F .text._ZNK3MPI9Intercomm5MergeEb	000000000000006b _ZNK3MPI9Intercomm5MergeEb
0000000000000000         *UND*	0000000000000000 MPI_Intercomm_merge
0000000000000000  w    F .text._ZNK3MPI9Intercomm6CreateERKNS_5GroupE	0000000000000076 _ZNK3MPI9Intercomm6CreateERKNS_5GroupE
0000000000000000  w    F .text._ZNK3MPI9Intercomm5SplitEii	000000000000006c _ZNK3MPI9Intercomm5SplitEii
0000000000000000  w    F .text._ZNK3MPI5Group8Get_sizeEv	000000000000004b _ZNK3MPI5Group8Get_sizeEv
0000000000000000         *UND*	0000000000000000 MPI_Group_size
0000000000000000  w    F .text._ZNK3MPI5Group8Get_rankEv	000000000000004b _ZNK3MPI5Group8Get_rankEv
0000000000000000         *UND*	0000000000000000 MPI_Group_rank
0000000000000000  w    F .text._ZNK3MPI5Group4InclEiPKi	000000000000006e _ZNK3MPI5Group4InclEiPKi
0000000000000000         *UND*	0000000000000000 MPI_Group_incl
0000000000000000  w    F .text._ZNK3MPI5Group4ExclEiPKi	000000000000006e _ZNK3MPI5Group4ExclEiPKi
0000000000000000         *UND*	0000000000000000 MPI_Group_excl
0000000000000000  w    F .text._ZNK3MPI5Group10Range_inclEiPA3_Ki	000000000000006e _ZNK3MPI5Group10Range_inclEiPA3_Ki
0000000000000000         *UND*	0000000000000000 MPI_Group_range_incl
0000000000000000  w    F .text._ZNK3MPI5Group10Range_exclEiPA3_Ki	000000000000006e _ZNK3MPI5Group10Range_exclEiPA3_Ki
0000000000000000         *UND*	0000000000000000 MPI_Group_range_excl
0000000000000000  w    F .text._ZN3MPI5Group4FreeEv	000000000000001f _ZN3MPI5Group4FreeEv
0000000000000000         *UND*	0000000000000000 MPI_Group_free
0000000000000000  w    F .text._ZN3MPI2OpD2Ev	0000000000000019 _ZN3MPI2OpD2Ev
0000000000000000  w    O .data.rel.ro.local._ZTVN3MPI2OpE	0000000000000040 _ZTVN3MPI2OpE
0000000000000000  w    F .text._ZN3MPI2OpD2Ev	0000000000000019 _ZN3MPI2OpD1Ev
0000000000000000  w    F .text._ZN3MPI2OpD0Ev	000000000000002b _ZN3MPI2OpD0Ev
0000000000000000  w    F .text._ZN3MPI2Op4InitEPFvPKvPviRKNS_8DatatypeEEb	000000000000004c _ZN3MPI2Op4InitEPFvPKvPviRKNS_8DatatypeEEb
0000000000000000         *UND*	0000000000000000 ompi_mpi_cxx_op_intercept
0000000000000000         *UND*	0000000000000000 MPI_Op_create
0000000000000000         *UND*	0000000000000000 ompi_op_set_cxx_callback
0000000000000000  w    F .text._ZN3MPI2Op4FreeEv	000000000000001f _ZN3MPI2Op4FreeEv
0000000000000000         *UND*	0000000000000000 MPI_Op_free
0000000000000000  w    F .text._ZNK3MPI2Op12Reduce_localEPKvPviRKNS_8DatatypeE	0000000000000051 _ZNK3MPI2Op12Reduce_localEPKvPviRKNS_8DatatypeE
0000000000000000         *UND*	0000000000000000 MPI_Reduce_local
0000000000000000  w    F .text._ZNK3MPI2Op14Is_commutativeEv	0000000000000050 _ZNK3MPI2Op14Is_commutativeEv
0000000000000000         *UND*	0000000000000000 MPI_Op_commutative
0000000000000000  w    F .text._ZN3MPI10Errhandler4FreeEv	000000000000001f _ZN3MPI10Errhandler4FreeEv
0000000000000000         *UND*	0000000000000000 MPI_Errhandler_free
0000000000000000  w    F .text._ZNK3MPI6Status9Get_countERKNS_8DatatypeE	000000000000005e _ZNK3MPI6Status9Get_countERKNS_8DatatypeE
0000000000000000         *UND*	0000000000000000 MPI_Get_count
0000000000000000  w    F .text._ZNK3MPI6Status12Is_cancelledEv	0000000000000050 _ZNK3MPI6Status12Is_cancelledEv
0000000000000000         *UND*	0000000000000000 MPI_Test_cancelled
0000000000000000  w    F .text._ZNK3MPI6Status12Get_elementsERKNS_8DatatypeE	000000000000005e _ZNK3MPI6Status12Get_elementsERKNS_8DatatypeE
0000000000000000         *UND*	0000000000000000 MPI_Get_elements
0000000000000000  w    F .text._ZNK3MPI6Status10Get_sourceEv	0000000000000017 _ZNK3MPI6Status10Get_sourceEv
0000000000000000  w    F .text._ZN3MPI6Status10Set_sourceEi	0000000000000018 _ZN3MPI6Status10Set_sourceEi
0000000000000000  w    F .text._ZNK3MPI6Status7Get_tagEv	0000000000000017 _ZNK3MPI6Status7Get_tagEv
0000000000000000  w    F .text._ZN3MPI6Status7Set_tagEi	0000000000000018 _ZN3MPI6Status7Set_tagEi
0000000000000000  w    F .text._ZNK3MPI6Status9Get_errorEv	0000000000000017 _ZNK3MPI6Status9Get_errorEv
0000000000000000  w    F .text._ZN3MPI6Status9Set_errorEi	0000000000000018 _ZN3MPI6Status9Set_errorEi
0000000000000000  w    F .text._ZN3MPI6Status12Set_elementsERKNS_8DatatypeEi	000000000000003a _ZN3MPI6Status12Set_elementsERKNS_8DatatypeEi
0000000000000000         *UND*	0000000000000000 MPI_Status_set_elements
0000000000000000  w    F .text._ZN3MPI6Status13Set_cancelledEb	000000000000002a _ZN3MPI6Status13Set_cancelledEb
0000000000000000         *UND*	0000000000000000 MPI_Status_set_cancelled
0000000000000000  w    F .text._ZN3MPI4Info6DeleteEPKc	000000000000002a _ZN3MPI4Info6DeleteEPKc
0000000000000000         *UND*	0000000000000000 MPI_Info_delete
0000000000000000  w    F .text._ZNK3MPI4Info3DupEv	0000000000000063 _ZNK3MPI4Info3DupEv
0000000000000000         *UND*	0000000000000000 MPI_Info_dup
0000000000000000  w    F .text._ZN3MPI4Info4FreeEv	000000000000001f _ZN3MPI4Info4FreeEv
0000000000000000         *UND*	0000000000000000 MPI_Info_free
0000000000000000  w    F .text._ZNK3MPI4Info3GetEPKciPc	0000000000000066 _ZNK3MPI4Info3GetEPKciPc
0000000000000000         *UND*	0000000000000000 MPI_Info_get
0000000000000000  w    F .text._ZNK3MPI4Info9Get_nkeysEv	000000000000004b _ZNK3MPI4Info9Get_nkeysEv
0000000000000000         *UND*	0000000000000000 MPI_Info_get_nkeys
0000000000000000  w    F .text._ZNK3MPI4Info10Get_nthkeyEiPc	000000000000002f _ZNK3MPI4Info10Get_nthkeyEiPc
0000000000000000         *UND*	0000000000000000 MPI_Info_get_nthkey
0000000000000000  w    F .text._ZNK3MPI4Info12Get_valuelenEPKcRi	000000000000005d _ZNK3MPI4Info12Get_valuelenEPKcRi
0000000000000000         *UND*	0000000000000000 MPI_Info_get_valuelen
0000000000000000  w    F .text._ZN3MPI4Info3SetEPKcS2_	0000000000000032 _ZN3MPI4Info3SetEPKcS2_
0000000000000000         *UND*	0000000000000000 MPI_Info_set
0000000000000000  w    F .text._ZNK3MPI3Win14Get_errhandlerEv	0000000000000063 _ZNK3MPI3Win14Get_errhandlerEv
0000000000000000         *UND*	0000000000000000 MPI_Win_get_errhandler
0000000000000000  w    F .text._ZNK3MPI3Win14Set_errhandlerERKNS_10ErrhandlerE	0000000000000035 _ZNK3MPI3Win14Set_errhandlerERKNS_10ErrhandlerE
0000000000000000         *UND*	0000000000000000 MPI_Win_set_errhandler
0000000000000000  w    F .text._ZNK3MPI3Win10AccumulateEPKviRKNS_8DatatypeEiliS5_RKNS_2OpE	0000000000000094 _ZNK3MPI3Win10AccumulateEPKviRKNS_8DatatypeEiliS5_RKNS_2OpE
0000000000000000         *UND*	0000000000000000 MPI_Accumulate
0000000000000000  w    F .text._ZNK3MPI3Win8CompleteEv	000000000000001f _ZNK3MPI3Win8CompleteEv
0000000000000000         *UND*	0000000000000000 MPI_Win_complete
0000000000000000  w    F .text._ZNK3MPI3Win5FenceEi	0000000000000027 _ZNK3MPI3Win5FenceEi
0000000000000000         *UND*	0000000000000000 MPI_Win_fence
0000000000000000  w    F .text._ZNK3MPI3Win3GetEPKviRKNS_8DatatypeEiliS5_	000000000000007b _ZNK3MPI3Win3GetEPKviRKNS_8DatatypeEiliS5_
0000000000000000         *UND*	0000000000000000 MPI_Get
0000000000000000  w    F .text._ZNK3MPI3Win9Get_groupEv	0000000000000063 _ZNK3MPI3Win9Get_groupEv
0000000000000000         *UND*	0000000000000000 MPI_Win_get_group
0000000000000000  w    F .text._ZNK3MPI3Win4LockEiii	0000000000000030 _ZNK3MPI3Win4LockEiii
0000000000000000         *UND*	0000000000000000 MPI_Win_lock
0000000000000000  w    F .text._ZNK3MPI3Win4PostERKNS_5GroupEi	0000000000000043 _ZNK3MPI3Win4PostERKNS_5GroupEi
0000000000000000         *UND*	0000000000000000 MPI_Win_post
0000000000000000  w    F .text._ZNK3MPI3Win3PutEPKviRKNS_8DatatypeEiliS5_	000000000000007b _ZNK3MPI3Win3PutEPKviRKNS_8DatatypeEiliS5_
0000000000000000         *UND*	0000000000000000 MPI_Put
0000000000000000  w    F .text._ZNK3MPI3Win5StartERKNS_5GroupEi	0000000000000043 _ZNK3MPI3Win5StartERKNS_5GroupEi
0000000000000000         *UND*	0000000000000000 MPI_Win_start
0000000000000000  w    F .text._ZNK3MPI3Win4TestEv	0000000000000050 _ZNK3MPI3Win4TestEv
0000000000000000         *UND*	0000000000000000 MPI_Win_test
0000000000000000  w    F .text._ZNK3MPI3Win6UnlockEi	0000000000000027 _ZNK3MPI3Win6UnlockEi
0000000000000000         *UND*	0000000000000000 MPI_Win_unlock
0000000000000000  w    F .text._ZNK3MPI3Win4WaitEv	000000000000001f _ZNK3MPI3Win4WaitEv
0000000000000000         *UND*	0000000000000000 MPI_Win_wait
0000000000000000  w    F .text._ZNK3MPI3Win15Call_errhandlerEi	0000000000000027 _ZNK3MPI3Win15Call_errhandlerEi
0000000000000000         *UND*	0000000000000000 MPI_Win_call_errhandler
0000000000000000  w    F .text._ZN3MPI3Win11Delete_attrEi	0000000000000027 _ZN3MPI3Win11Delete_attrEi
0000000000000000         *UND*	0000000000000000 MPI_Win_delete_attr
0000000000000000  w    F .text._ZNK3MPI3Win8Get_nameEPcRi	0000000000000032 _ZNK3MPI3Win8Get_nameEPcRi
0000000000000000         *UND*	0000000000000000 MPI_Win_get_name
0000000000000000  w    F .text._ZN3MPI3Win8Set_attrEiPKv	000000000000002f _ZN3MPI3Win8Set_attrEiPKv
0000000000000000         *UND*	0000000000000000 MPI_Win_set_attr
0000000000000000  w    F .text._ZN3MPI3Win8Set_nameEPKc	000000000000002a _ZN3MPI3Win8Set_nameEPKc
0000000000000000         *UND*	0000000000000000 MPI_Win_set_name
00000000000001d8 g     O .bss	0000000000000004 p
00000000000001e0 g     O .bss	0000000000000018 x
0000000000000200 g     O .bss	0000000000000018 y
0000000000000220 g     O .bss	0000000000000018 elm_row
0000000000000121 g     F .text	000000000000007a _Z4initv
0000000000000000  w    F .text._ZNSt6vectorIPdSaIS0_EE9push_backERKS0_	000000000000007b _ZNSt6vectorIPdSaIS0_EE9push_backERKS0_
0000000000000000  w    F .text._ZNSt6vectorIPiSaIS0_EE9push_backERKS0_	000000000000007b _ZNSt6vectorIPiSaIS0_EE9push_backERKS0_
0000000000000000  w    F .text._ZNSt12__shared_ptrINSt12experimental10filesystem2v17__cxx114_DirELN9__gnu_cxx12_Lock_policyE2EEC2ERKS7_	000000000000003c _ZNSt12__shared_ptrINSt12experimental10filesystem2v17__cxx114_DirELN9__gnu_cxx12_Lock_policyE2EEC2ERKS7_
0000000000000000  w    F .text._ZNSt14__shared_countILN9__gnu_cxx12_Lock_policyE2EEC2ERKS2_	000000000000003c _ZNSt14__shared_countILN9__gnu_cxx12_Lock_policyE2EEC1ERKS2_
0000000000000000  w    F .text._ZNSt12__shared_ptrINSt12experimental10filesystem2v17__cxx114_DirELN9__gnu_cxx12_Lock_policyE2EEC2ERKS7_	000000000000003c _ZNSt12__shared_ptrINSt12experimental10filesystem2v17__cxx114_DirELN9__gnu_cxx12_Lock_policyE2EEC1ERKS7_
0000000000000000  w    F .text._ZNSt10shared_ptrINSt12experimental10filesystem2v17__cxx114_DirEEC2ERKS5_	0000000000000026 _ZNSt10shared_ptrINSt12experimental10filesystem2v17__cxx114_DirEEC2ERKS5_
0000000000000000  w    F .text._ZNSt10shared_ptrINSt12experimental10filesystem2v17__cxx114_DirEEC2ERKS5_	0000000000000026 _ZNSt10shared_ptrINSt12experimental10filesystem2v17__cxx114_DirEEC1ERKS5_
0000000000000000  w    F .text._ZNSt12experimental10filesystem2v17__cxx1118directory_iteratorC2ERKS3_	0000000000000026 _ZNSt12experimental10filesystem2v17__cxx1118directory_iteratorC2ERKS3_
0000000000000000  w    F .text._ZNSt12experimental10filesystem2v17__cxx1118directory_iteratorC2ERKS3_	0000000000000026 _ZNSt12experimental10filesystem2v17__cxx1118directory_iteratorC1ERKS3_
000000000000019b g     F .text	0000000000000c0a _Z13readSSSFormati
0000000000000000  w    F .text._ZNSt6vectorIdSaIdEEC2Ev	000000000000001b _ZNSt6vectorIdSaIdEEC1Ev
0000000000000000  w    F .text._ZNSt6vectorINSt7__cxx1112basic_stringIcSt11char_traitsIcESaIcEEESaIS5_EEixEm	0000000000000020 _ZNSt6vectorINSt7__cxx1112basic_stringIcSt11char_traitsIcESaIcEEESaIS5_EEixEm
0000000000000000  w    F .text._ZStplIcSt11char_traitsIcESaIcEENSt7__cxx1112basic_stringIT_T0_T1_EEPKS5_RKS8_	00000000000000ca _ZStplIcSt11char_traitsIcESaIcEENSt7__cxx1112basic_stringIT_T0_T1_EEPKS5_RKS8_
0000000000000000         *UND*	0000000000000000 _ZNKSt12experimental10filesystem2v17__cxx1118directory_iteratordeEv
0000000000000000         *UND*	0000000000000000 _ZNSt13basic_fstreamIcSt11char_traitsIcEEC1ERKNSt7__cxx1112basic_stringIcS1_SaIcEEESt13_Ios_Openmode
0000000000000000  w    F .text._ZNSt12experimental10filesystem2v17__cxx114pathC2IA7_cS3_EERKT_	00000000000000bd _ZNSt12experimental10filesystem2v17__cxx114pathC1IA7_cS3_EERKT_
0000000000000000  w    F .text._ZNSt6vectorIiSaIiEEC2Ev	000000000000001b _ZNSt6vectorIiSaIiEEC1Ev
0000000000000000         *UND*	0000000000000000 _ZNSirsERi
0000000000000000         *UND*	0000000000000000 _ZNKSt9basic_iosIcSt11char_traitsIcEEcvbEv
0000000000000000  w    F .text._ZNSt6vectorIiSaIiEE9push_backERKi	000000000000007b _ZNSt6vectorIiSaIiEE9push_backERKi
0000000000000000  w    F .text._ZNKSt6vectorIiSaIiEE4sizeEv	0000000000000026 _ZNKSt6vectorIiSaIiEE4sizeEv
0000000000000000  w    F .text._ZNSt6vectorIPiSaIS0_EE9push_backEOS0_	0000000000000031 _ZNSt6vectorIPiSaIS0_EE9push_backEOS0_
0000000000000000  w    F .text._ZNSt6vectorIPiSaIS0_EEixEm	0000000000000020 _ZNSt6vectorIPiSaIS0_EEixEm
0000000000000000  w    F .text._ZNSt6vectorIiSaIiEEixEm	0000000000000020 _ZNSt6vectorIiSaIiEEixEm
0000000000000000  w    F .text._ZNSt6vectorIiSaIiEE9push_backEOi	0000000000000031 _ZNSt6vectorIiSaIiEE9push_backEOi
0000000000000000         *UND*	0000000000000000 _ZSt4cout
0000000000000000  w    F .text._ZNSt12experimental10filesystem2v17__cxx11lsIcSt11char_traitsIcEEERSt13basic_ostreamIT_T0_ESA_RKNS2_4pathE	00000000000000e0 _ZNSt12experimental10filesystem2v17__cxx11lsIcSt11char_traitsIcEEERSt13basic_ostreamIT_T0_ESA_RKNS2_4pathE
0000000000000000         *UND*	0000000000000000 _ZStlsISt11char_traitsIcEERSt13basic_ostreamIcT_ES5_PKc
0000000000000000         *UND*	0000000000000000 _ZSt4endlIcSt11char_traitsIcEERSt13basic_ostreamIT_T0_ES6_
0000000000000000         *UND*	0000000000000000 _ZNSolsEPFRSoS_E
0000000000000000         *UND*	0000000000000000 _ZNSt13basic_fstreamIcSt11char_traitsIcEE5closeEv
0000000000000000  w    F .text._ZNSt6vectorIiSaIiEED2Ev	0000000000000044 _ZNSt6vectorIiSaIiEED1Ev
0000000000000000  w    F .text._ZNSt12experimental10filesystem2v17__cxx114pathC2IA4_cS3_EERKT_	00000000000000bd _ZNSt12experimental10filesystem2v17__cxx114pathC1IA4_cS3_EERKT_
0000000000000000         *UND*	0000000000000000 _ZNSirsERd
0000000000000000  w    F .text._ZNSt6vectorIdSaIdEE9push_backERKd	000000000000007b _ZNSt6vectorIdSaIdEE9push_backERKd
0000000000000000  w    F .text._ZNSt12experimental10filesystem2v17__cxx114pathC2IA8_cS3_EERKT_	00000000000000bd _ZNSt12experimental10filesystem2v17__cxx114pathC1IA8_cS3_EERKT_
0000000000000000  w    F .text._ZNKSt6vectorIdSaIdEE4sizeEv	0000000000000026 _ZNKSt6vectorIdSaIdEE4sizeEv
0000000000000000  w    F .text._ZNSt6vectorIPdSaIS0_EE9push_backEOS0_	0000000000000031 _ZNSt6vectorIPdSaIS0_EE9push_backEOS0_
0000000000000000  w    F .text._ZNSt6vectorIPdSaIS0_EEixEm	0000000000000020 _ZNSt6vectorIPdSaIS0_EEixEm
0000000000000000  w    F .text._ZNSt6vectorIdSaIdEEixEm	0000000000000020 _ZNSt6vectorIdSaIdEEixEm
0000000000000000  w    F .text._ZNSt12experimental10filesystem2v17__cxx114pathC2IA12_cS3_EERKT_	00000000000000bd _ZNSt12experimental10filesystem2v17__cxx114pathC1IA12_cS3_EERKT_
0000000000000000  w    F .text._ZNSt6vectorIdSaIdEE5clearEv	0000000000000025 _ZNSt6vectorIdSaIdEE5clearEv
0000000000000000         *UND*	0000000000000000 _ZNSt13basic_fstreamIcSt11char_traitsIcEED1Ev
0000000000000000         *UND*	0000000000000000 _ZNSt12experimental10filesystem2v17__cxx1118directory_iteratorppEv
0000000000000000  w    F .text._ZNSt6vectorIdSaIdEED2Ev	0000000000000044 _ZNSt6vectorIdSaIdEED1Ev
0000000000000da5 g     F .text	0000000000000ad8 main
0000000000000000         *UND*	0000000000000000 MPI_Init
0000000000000000         *UND*	0000000000000000 ompi_mpi_comm_world
0000000000000000         *UND*	0000000000000000 atoi
0000000000000000         *UND*	0000000000000000 _ZNSolsEi
0000000000000000         *UND*	0000000000000000 _ZStlsIcSt11char_traitsIcESaIcEERSt13basic_ostreamIT_T0_ES7_RKNSt7__cxx1112basic_stringIS4_S5_T1_EE
0000000000000000  w    F .text._ZSt3minIiERKT_S2_S2_	0000000000000028 _ZSt3minIiERKT_S2_S2_
0000000000000000         *UND*	0000000000000000 ompi_mpi_int
0000000000000000         *UND*	0000000000000000 ompi_mpi_double
0000000000000000         *UND*	0000000000000000 MPI_Wtime
0000000000000000         *UND*	0000000000000000 __rcm
0000000000000000         *UND*	0000000000000000 _ZNSolsEd
0000000000000000         *UND*	0000000000000000 MPI_Finalize
0000000000000000  w    F .text._ZN9__gnu_cxx11char_traitsIcE2eqERKcS3_	0000000000000021 _ZN9__gnu_cxx11char_traitsIcE2eqERKcS3_
0000000000000000  w    F .text._ZNSt7__cxx1112basic_stringIcSt11char_traitsIcESaIcEE12_Alloc_hiderD2Ev	000000000000001b _ZNSt7__cxx1112basic_stringIcSt11char_traitsIcESaIcEE12_Alloc_hiderD2Ev
0000000000000000         *UND*	0000000000000000 _ZNSaIcED2Ev
0000000000000000  w    F .text._ZNSt7__cxx1112basic_stringIcSt11char_traitsIcESaIcEE12_Alloc_hiderD2Ev	000000000000001b _ZNSt7__cxx1112basic_stringIcSt11char_traitsIcESaIcEE12_Alloc_hiderD1Ev
0000000000000000  w    F .text._ZNSt7__cxx1112basic_stringIcSt11char_traitsIcESaIcEED2Ev	0000000000000027 _ZNSt7__cxx1112basic_stringIcSt11char_traitsIcESaIcEED2Ev
0000000000000000  w    F .text._ZNSt7__cxx1112basic_stringIcSt11char_traitsIcESaIcEE10_M_disposeEv	0000000000000039 _ZNSt7__cxx1112basic_stringIcSt11char_traitsIcESaIcEE10_M_disposeEv
0000000000000000  w    F .text._ZNKSt7__cxx1112basic_stringIcSt11char_traitsIcESaIcEE6lengthEv	0000000000000012 _ZNKSt7__cxx1112basic_stringIcSt11char_traitsIcESaIcEE6lengthEv
0000000000000000  w    F .text._ZSt3maxImERKT_S2_S2_	000000000000002b _ZSt3maxImERKT_S2_S2_
0000000000000000  w    F .text._ZNSt6vectorINSt12experimental10filesystem2v17__cxx114path5_CmptESaIS5_EED2Ev	0000000000000044 _ZNSt6vectorINSt12experimental10filesystem2v17__cxx114path5_CmptESaIS5_EED2Ev
0000000000000000  w    F .text._ZNSt12_Vector_baseINSt12experimental10filesystem2v17__cxx114path5_CmptESaIS5_EE19_M_get_Tp_allocatorEv	000000000000000e _ZNSt12_Vector_baseINSt12experimental10filesystem2v17__cxx114path5_CmptESaIS5_EE19_M_get_Tp_allocatorEv
0000000000000000  w    F .text._ZSt8_DestroyIPNSt12experimental10filesystem2v17__cxx114path5_CmptES5_EvT_S7_RSaIT0_E	000000000000002a _ZSt8_DestroyIPNSt12experimental10filesystem2v17__cxx114path5_CmptES5_EvT_S7_RSaIT0_E
0000000000000000  w    F .text._ZNSt12_Vector_baseINSt12experimental10filesystem2v17__cxx114path5_CmptESaIS5_EED2Ev	0000000000000061 _ZNSt12_Vector_baseINSt12experimental10filesystem2v17__cxx114path5_CmptESaIS5_EED2Ev
0000000000000000  w    F .text._ZNSt7__cxx1112basic_stringIcSt11char_traitsIcESaIcEEC2Ev	0000000000000086 _ZNSt7__cxx1112basic_stringIcSt11char_traitsIcESaIcEEC2Ev
0000000000000000  w    F .text._ZNSt7__cxx1112basic_stringIcSt11char_traitsIcESaIcEE13_M_local_dataEv	000000000000001e _ZNSt7__cxx1112basic_stringIcSt11char_traitsIcESaIcEE13_M_local_dataEv
0000000000000000  w    F .text._ZNSt7__cxx1112basic_stringIcSt11char_traitsIcESaIcEE12_Alloc_hiderC2EPcOS3_	0000000000000040 _ZNSt7__cxx1112basic_stringIcSt11char_traitsIcESaIcEE12_Alloc_hiderC1EPcOS3_
0000000000000000  w    F .text._ZNSt7__cxx1112basic_stringIcSt11char_traitsIcESaIcEE13_M_set_lengthEm	0000000000000072 _ZNSt7__cxx1112basic_stringIcSt11char_traitsIcESaIcEE13_M_set_lengthEm
0000000000000000  w    F .text._ZNSt6vectorINSt12experimental10filesystem2v17__cxx114path5_CmptESaIS5_EEC2Ev	000000000000001b _ZNSt6vectorINSt12experimental10filesystem2v17__cxx114path5_CmptESaIS5_EEC2Ev
0000000000000000  w    F .text._ZNSt12_Vector_baseINSt12experimental10filesystem2v17__cxx114path5_CmptESaIS5_EEC2Ev	000000000000001b _ZNSt12_Vector_baseINSt12experimental10filesystem2v17__cxx114path5_CmptESaIS5_EEC2Ev
0000000000000000  w    F .text._ZNSt7__cxx1112basic_stringIcSt11char_traitsIcESaIcEEC2EOS4_	0000000000000106 _ZNSt7__cxx1112basic_stringIcSt11char_traitsIcESaIcEEC2EOS4_
0000000000000000  w    F .text._ZNSt7__cxx1112basic_stringIcSt11char_traitsIcESaIcEE16_M_get_allocatorEv	000000000000000e _ZNSt7__cxx1112basic_stringIcSt11char_traitsIcESaIcEE16_M_get_allocatorEv
0000000000000000  w    F .text._ZSt4moveIRSaIcEEONSt16remove_referenceIT_E4typeEOS3_	000000000000000e _ZSt4moveIRSaIcEEONSt16remove_referenceIT_E4typeEOS3_
0000000000000000  w    F .text._ZNKSt7__cxx1112basic_stringIcSt11char_traitsIcESaIcEE11_M_is_localEv	0000000000000035 _ZNKSt7__cxx1112basic_stringIcSt11char_traitsIcESaIcEE11_M_is_localEv
0000000000000000  w    F .text._ZNKSt7__cxx1112basic_stringIcSt11char_traitsIcESaIcEE7_M_dataEv	0000000000000011 _ZNKSt7__cxx1112basic_stringIcSt11char_traitsIcESaIcEE7_M_dataEv
0000000000000000  w    F .text._ZNSt7__cxx1112basic_stringIcSt11char_traitsIcESaIcEE7_M_dataEPc	000000000000001a _ZNSt7__cxx1112basic_stringIcSt11char_traitsIcESaIcEE7_M_dataEPc
0000000000000000  w    F .text._ZNSt7__cxx1112basic_stringIcSt11char_traitsIcESaIcEE11_M_capacityEm	000000000000001b _ZNSt7__cxx1112basic_stringIcSt11char_traitsIcESaIcEE11_M_capacityEm
0000000000000000  w    F .text._ZNSt7__cxx1112basic_stringIcSt11char_traitsIcESaIcEE9_M_lengthEm	000000000000001b _ZNSt7__cxx1112basic_stringIcSt11char_traitsIcESaIcEE9_M_lengthEm
0000000000000000  w    F .text._ZNSt7__cxx1112basic_stringIcSt11char_traitsIcESaIcEEC2ERKS4_	00000000000000e5 _ZNSt7__cxx1112basic_stringIcSt11char_traitsIcESaIcEEC2ERKS4_
0000000000000000  w    F .text._ZNKSt7__cxx1112basic_stringIcSt11char_traitsIcESaIcEE16_M_get_allocatorEv	000000000000000e _ZNKSt7__cxx1112basic_stringIcSt11char_traitsIcESaIcEE16_M_get_allocatorEv
0000000000000000  w    F .text._ZN9__gnu_cxx14__alloc_traitsISaIcEE17_S_select_on_copyERKS1_	000000000000004c _ZN9__gnu_cxx14__alloc_traitsISaIcEE17_S_select_on_copyERKS1_
0000000000000000  w    F .text._ZNSt7__cxx1112basic_stringIcSt11char_traitsIcESaIcEE12_M_constructIPcEEvT_S7_	0000000000000038 _ZNSt7__cxx1112basic_stringIcSt11char_traitsIcESaIcEE12_M_constructIPcEEvT_S7_
0000000000000000  w    F .text._ZNSt7__cxx1112basic_stringIcSt11char_traitsIcESaIcEEC2EPKcRKS3_	0000000000000097 _ZNSt7__cxx1112basic_stringIcSt11char_traitsIcESaIcEEC2EPKcRKS3_
0000000000000000  w    F .text._ZNSt7__cxx1112basic_stringIcSt11char_traitsIcESaIcEE12_Alloc_hiderC2EPcRKS3_	0000000000000035 _ZNSt7__cxx1112basic_stringIcSt11char_traitsIcESaIcEE12_Alloc_hiderC1EPcRKS3_
0000000000000000  w    F .text._ZNSt7__cxx1112basic_stringIcSt11char_traitsIcESaIcEE12_M_constructIPKcEEvT_S8_	0000000000000038 _ZNSt7__cxx1112basic_stringIcSt11char_traitsIcESaIcEE12_M_constructIPKcEEvT_S8_
0000000000000000  w    F .text._ZNSt7__cxx1112basic_stringIcSt11char_traitsIcESaIcEE6appendEPKcm	0000000000000049 _ZNSt7__cxx1112basic_stringIcSt11char_traitsIcESaIcEE6appendEPKcm
0000000000000000  w    F .text._ZNKSt7__cxx1112basic_stringIcSt11char_traitsIcESaIcEE15_M_check_lengthEmmPKc	0000000000000060 _ZNKSt7__cxx1112basic_stringIcSt11char_traitsIcESaIcEE15_M_check_lengthEmmPKc
0000000000000000  w    F .text._ZNSt7__cxx1112basic_stringIcSt11char_traitsIcESaIcEE9_M_appendEPKcm	00000000000000cd _ZNSt7__cxx1112basic_stringIcSt11char_traitsIcESaIcEE9_M_appendEPKcm
0000000000000000  w    F .text._ZNKSt12experimental10filesystem2v17__cxx114path6stringIcSt11char_traitsIcESaIcEEENSt7__cxx1112basic_stringIT_T0_T1_EERKSC_	000000000000007a _ZNKSt12experimental10filesystem2v17__cxx114path6stringIcSt11char_traitsIcESaIcEEENSt7__cxx1112basic_stringIT_T0_T1_EERKSC_
0000000000000000  w    F .text._ZNKSt7__cxx1112basic_stringIcSt11char_traitsIcESaIcEE5beginEv	0000000000000058 _ZNKSt7__cxx1112basic_stringIcSt11char_traitsIcESaIcEE5beginEv
0000000000000000  w    F .text._ZNKSt7__cxx1112basic_stringIcSt11char_traitsIcESaIcEE3endEv	0000000000000070 _ZNKSt7__cxx1112basic_stringIcSt11char_traitsIcESaIcEE3endEv
0000000000000000  w    F .text._ZNSt7__cxx1112basic_stringIcSt11char_traitsIcESaIcEEC2IN9__gnu_cxx17__normal_iteratorIPKcS4_EEvEET_SB_RKS3_	0000000000000078 _ZNSt7__cxx1112basic_stringIcSt11char_traitsIcESaIcEEC1IN9__gnu_cxx17__normal_iteratorIPKcS4_EEvEET_SB_RKS3_
0000000000000000  w    F .text._ZNKSt7__cxx1112basic_stringIcSt11char_traitsIcESaIcEE8_M_checkEmPKc	000000000000005c _ZNKSt7__cxx1112basic_stringIcSt11char_traitsIcESaIcEE8_M_checkEmPKc
0000000000000000  w    F .text._ZNSt7__cxx1112basic_stringIcSt11char_traitsIcESaIcEEC2ERKS4_mm	0000000000000100 _ZNSt7__cxx1112basic_stringIcSt11char_traitsIcESaIcEEC1ERKS4_mm
0000000000000000  w    F .text._ZNSt14__shared_countILN9__gnu_cxx12_Lock_policyE2EED2Ev	000000000000002a _ZNSt14__shared_countILN9__gnu_cxx12_Lock_policyE2EED2Ev
0000000000000000  w    F .text._ZNSt16_Sp_counted_baseILN9__gnu_cxx12_Lock_policyE2EE10_M_releaseEv	000000000000007b _ZNSt16_Sp_counted_baseILN9__gnu_cxx12_Lock_policyE2EE10_M_releaseEv
0000000000000000  w    F .text._ZSt4moveIRSt10shared_ptrINSt12experimental10filesystem2v17__cxx114_DirEEEONSt16remove_referenceIT_E4typeEOS9_	000000000000000e _ZSt4moveIRSt10shared_ptrINSt12experimental10filesystem2v17__cxx114_DirEEEONSt16remove_referenceIT_E4typeEOS9_
0000000000000000  w    F .text._ZNSt10shared_ptrINSt12experimental10filesystem2v17__cxx114_DirEEC2EOS5_	0000000000000034 _ZNSt10shared_ptrINSt12experimental10filesystem2v17__cxx114_DirEEC2EOS5_
0000000000000000  w    F .text._ZNSt12__shared_ptrINSt12experimental10filesystem2v17__cxx114_DirELN9__gnu_cxx12_Lock_policyE2EEC2EOS7_	0000000000000057 _ZNSt12__shared_ptrINSt12experimental10filesystem2v17__cxx114_DirELN9__gnu_cxx12_Lock_policyE2EEC2EOS7_
0000000000000000  w    F .text._ZNSt14__shared_countILN9__gnu_cxx12_Lock_policyE2EEC2Ev	0000000000000016 _ZNSt14__shared_countILN9__gnu_cxx12_Lock_policyE2EEC1Ev
0000000000000000  w    F .text._ZNSt12__shared_ptrINSt12experimental10filesystem2v17__cxx114_DirELN9__gnu_cxx12_Lock_policyE2EEC2Ev	000000000000002a _ZNSt12__shared_ptrINSt12experimental10filesystem2v17__cxx114_DirELN9__gnu_cxx12_Lock_policyE2EEC1Ev
0000000000000000  w    F .text._ZNKSt14__shared_countILN9__gnu_cxx12_Lock_policyE2EE7_M_lessERKS2_	000000000000004c _ZNKSt14__shared_countILN9__gnu_cxx12_Lock_policyE2EE7_M_lessERKS2_
0000000000000000  w    F .text._ZNSaINSt7__cxx1112basic_stringIcSt11char_traitsIcESaIcEEEEC2Ev	000000000000001b _ZNSaINSt7__cxx1112basic_stringIcSt11char_traitsIcESaIcEEEEC2Ev
0000000000000000  w    F .text._ZN9__gnu_cxx13new_allocatorINSt7__cxx1112basic_stringIcSt11char_traitsIcESaIcEEEEC2Ev	000000000000000b _ZN9__gnu_cxx13new_allocatorINSt7__cxx1112basic_stringIcSt11char_traitsIcESaIcEEEEC2Ev
0000000000000000  w    F .text._ZNSaINSt7__cxx1112basic_stringIcSt11char_traitsIcESaIcEEEEC2Ev	000000000000001b _ZNSaINSt7__cxx1112basic_stringIcSt11char_traitsIcESaIcEEEEC1Ev
0000000000000000  w    F .text._ZNSaINSt7__cxx1112basic_stringIcSt11char_traitsIcESaIcEEEED2Ev	000000000000001b _ZNSaINSt7__cxx1112basic_stringIcSt11char_traitsIcESaIcEEEED2Ev
0000000000000000  w    F .text._ZN9__gnu_cxx13new_allocatorINSt7__cxx1112basic_stringIcSt11char_traitsIcESaIcEEEED2Ev	000000000000000b _ZN9__gnu_cxx13new_allocatorINSt7__cxx1112basic_stringIcSt11char_traitsIcESaIcEEEED2Ev
0000000000000000  w    F .text._ZNSaINSt7__cxx1112basic_stringIcSt11char_traitsIcESaIcEEEED2Ev	000000000000001b _ZNSaINSt7__cxx1112basic_stringIcSt11char_traitsIcESaIcEEEED1Ev
0000000000000000  w    F .text._ZNKSt16initializer_listINSt7__cxx1112basic_stringIcSt11char_traitsIcESaIcEEEE5beginEv	0000000000000011 _ZNKSt16initializer_listINSt7__cxx1112basic_stringIcSt11char_traitsIcESaIcEEEE5beginEv
0000000000000000  w    F .text._ZNKSt16initializer_listINSt7__cxx1112basic_stringIcSt11char_traitsIcESaIcEEEE3endEv	0000000000000036 _ZNKSt16initializer_listINSt7__cxx1112basic_stringIcSt11char_traitsIcESaIcEEEE3endEv
0000000000000000  w    F .text._ZNKSt16initializer_listINSt7__cxx1112basic_stringIcSt11char_traitsIcESaIcEEEE4sizeEv	0000000000000012 _ZNKSt16initializer_listINSt7__cxx1112basic_stringIcSt11char_traitsIcESaIcEEEE4sizeEv
0000000000000000  w    F .text._ZNSt6vectorINSt7__cxx1112basic_stringIcSt11char_traitsIcESaIcEEESaIS5_EEC2ESt16initializer_listIS5_ERKS6_	00000000000000ba _ZNSt6vectorINSt7__cxx1112basic_stringIcSt11char_traitsIcESaIcEEESaIS5_EEC2ESt16initializer_listIS5_ERKS6_
0000000000000000  w    F .text._ZNSt12_Vector_baseINSt7__cxx1112basic_stringIcSt11char_traitsIcESaIcEEESaIS5_EEC2ERKS6_	0000000000000026 _ZNSt12_Vector_baseINSt7__cxx1112basic_stringIcSt11char_traitsIcESaIcEEESaIS5_EEC2ERKS6_
0000000000000000  w    F .text._ZNSt6vectorINSt7__cxx1112basic_stringIcSt11char_traitsIcESaIcEEESaIS5_EE19_M_range_initializeIPKS5_EEvT_SB_St20forward_iterator_tag	0000000000000096 _ZNSt6vectorINSt7__cxx1112basic_stringIcSt11char_traitsIcESaIcEEESaIS5_EE19_M_range_initializeIPKS5_EEvT_SB_St20forward_iterator_tag
0000000000000000  w    F .text._ZNSt12_Vector_baseINSt7__cxx1112basic_stringIcSt11char_traitsIcESaIcEEESaIS5_EED2Ev	0000000000000050 _ZNSt12_Vector_baseINSt7__cxx1112basic_stringIcSt11char_traitsIcESaIcEEESaIS5_EED2Ev
0000000000000000  w    F .text._ZNSt6vectorINSt7__cxx1112basic_stringIcSt11char_traitsIcESaIcEEESaIS5_EEC2ESt16initializer_listIS5_ERKS6_	00000000000000ba _ZNSt6vectorINSt7__cxx1112basic_stringIcSt11char_traitsIcESaIcEEESaIS5_EEC1ESt16initializer_listIS5_ERKS6_
0000000000000000  w    F .text._ZNSt6vectorINSt7__cxx1112basic_stringIcSt11char_traitsIcESaIcEEESaIS5_EED2Ev	0000000000000044 _ZNSt6vectorINSt7__cxx1112basic_stringIcSt11char_traitsIcESaIcEEESaIS5_EED2Ev
0000000000000000  w    F .text._ZNSt12_Vector_baseINSt7__cxx1112basic_stringIcSt11char_traitsIcESaIcEEESaIS5_EE19_M_get_Tp_allocatorEv	000000000000000e _ZNSt12_Vector_baseINSt7__cxx1112basic_stringIcSt11char_traitsIcESaIcEEESaIS5_EE19_M_get_Tp_allocatorEv
0000000000000000  w    F .text._ZSt8_DestroyIPNSt7__cxx1112basic_stringIcSt11char_traitsIcESaIcEEES5_EvT_S7_RSaIT0_E	000000000000002a _ZSt8_DestroyIPNSt7__cxx1112basic_stringIcSt11char_traitsIcESaIcEEES5_EvT_S7_RSaIT0_E
0000000000000000  w    F .text._ZNSt6vectorINSt7__cxx1112basic_stringIcSt11char_traitsIcESaIcEEESaIS5_EED2Ev	0000000000000044 _ZNSt6vectorINSt7__cxx1112basic_stringIcSt11char_traitsIcESaIcEEESaIS5_EED1Ev
0000000000000000  w    F .text._ZNSaIiEC2Ev	000000000000001b _ZNSaIiEC2Ev
0000000000000000  w    F .text._ZN9__gnu_cxx13new_allocatorIiEC2Ev	000000000000000b _ZN9__gnu_cxx13new_allocatorIiEC2Ev
0000000000000000  w    F .text._ZNSaIiEC2Ev	000000000000001b _ZNSaIiEC1Ev
0000000000000000  w    F .text._ZNSaIiED2Ev	000000000000001b _ZNSaIiED2Ev
0000000000000000  w    F .text._ZN9__gnu_cxx13new_allocatorIiED2Ev	000000000000000b _ZN9__gnu_cxx13new_allocatorIiED2Ev
0000000000000000  w    F .text._ZNSaIiED2Ev	000000000000001b _ZNSaIiED1Ev
0000000000000000  w    F .text._ZNKSt16initializer_listIiE5beginEv	0000000000000011 _ZNKSt16initializer_listIiE5beginEv
0000000000000000  w    F .text._ZNKSt16initializer_listIiE3endEv	0000000000000036 _ZNKSt16initializer_listIiE3endEv
0000000000000000  w    F .text._ZNKSt16initializer_listIiE4sizeEv	0000000000000012 _ZNKSt16initializer_listIiE4sizeEv
0000000000000000  w    F .text._ZNSt6vectorIiSaIiEEC2ESt16initializer_listIiERKS0_	00000000000000ba _ZNSt6vectorIiSaIiEEC2ESt16initializer_listIiERKS0_
0000000000000000  w    F .text._ZNSt12_Vector_baseIiSaIiEEC2ERKS0_	0000000000000026 _ZNSt12_Vector_baseIiSaIiEEC2ERKS0_
0000000000000000  w    F .text._ZNSt6vectorIiSaIiEE19_M_range_initializeIPKiEEvT_S5_St20forward_iterator_tag	0000000000000096 _ZNSt6vectorIiSaIiEE19_M_range_initializeIPKiEEvT_S5_St20forward_iterator_tag
0000000000000000  w    F .text._ZNSt12_Vector_baseIiSaIiEED2Ev	0000000000000050 _ZNSt12_Vector_baseIiSaIiEED2Ev
0000000000000000  w    F .text._ZNSt6vectorIiSaIiEEC2ESt16initializer_listIiERKS0_	00000000000000ba _ZNSt6vectorIiSaIiEEC1ESt16initializer_listIiERKS0_
0000000000000000  w    F .text._ZNSt6vectorIPdSaIS0_EEC2Ev	000000000000001b _ZNSt6vectorIPdSaIS0_EEC2Ev
0000000000000000  w    F .text._ZNSt12_Vector_baseIPdSaIS0_EEC2Ev	000000000000001b _ZNSt12_Vector_baseIPdSaIS0_EEC2Ev
0000000000000000  w    F .text._ZNSt6vectorIPdSaIS0_EEC2Ev	000000000000001b _ZNSt6vectorIPdSaIS0_EEC1Ev
0000000000000000  w    F .text._ZNSt6vectorIPiSaIS0_EEC2Ev	000000000000001b _ZNSt6vectorIPiSaIS0_EEC2Ev
0000000000000000  w    F .text._ZNSt12_Vector_baseIPiSaIS0_EEC2Ev	000000000000001b _ZNSt12_Vector_baseIPiSaIS0_EEC2Ev
0000000000000000  w    F .text._ZNSt6vectorIPiSaIS0_EEC2Ev	000000000000001b _ZNSt6vectorIPiSaIS0_EEC1Ev
0000000000000000  w    F .text._ZNSt6vectorIiSaIiEEC2Ev	000000000000001b _ZNSt6vectorIiSaIiEEC2Ev
0000000000000000  w    F .text._ZNSt12_Vector_baseIiSaIiEEC2Ev	000000000000001b _ZNSt12_Vector_baseIiSaIiEEC2Ev
0000000000000000  w    F .text._ZNSt16allocator_traitsISaIPdEE9constructIS0_JRKS0_EEEvRS1_PT_DpOT0_	0000000000000039 _ZNSt16allocator_traitsISaIPdEE9constructIS0_JRKS0_EEEvRS1_PT_DpOT0_
0000000000000000  w    F .text._ZNSt6vectorIPdSaIS0_EE3endEv	000000000000004c _ZNSt6vectorIPdSaIS0_EE3endEv
0000000000000000  w    F .text._ZNSt6vectorIPdSaIS0_EE17_M_realloc_insertIJRKS0_EEEvN9__gnu_cxx17__normal_iteratorIPS0_S2_EEDpOT_	000000000000027c _ZNSt6vectorIPdSaIS0_EE17_M_realloc_insertIJRKS0_EEEvN9__gnu_cxx17__normal_iteratorIPS0_S2_EEDpOT_
0000000000000000  w    F .text._ZNSt16allocator_traitsISaIPiEE9constructIS0_JRKS0_EEEvRS1_PT_DpOT0_	0000000000000039 _ZNSt16allocator_traitsISaIPiEE9constructIS0_JRKS0_EEEvRS1_PT_DpOT0_
0000000000000000  w    F .text._ZNSt6vectorIPiSaIS0_EE3endEv	000000000000004c _ZNSt6vectorIPiSaIS0_EE3endEv
0000000000000000  w    F .text._ZNSt6vectorIPiSaIS0_EE17_M_realloc_insertIJRKS0_EEEvN9__gnu_cxx17__normal_iteratorIPS0_S2_EEDpOT_	000000000000027c _ZNSt6vectorIPiSaIS0_EE17_M_realloc_insertIJRKS0_EEEvN9__gnu_cxx17__normal_iteratorIPS0_S2_EEDpOT_
0000000000000000  w    F .text._ZNSt6vectorIdSaIdEEC2Ev	000000000000001b _ZNSt6vectorIdSaIdEEC2Ev
0000000000000000  w    F .text._ZNSt12_Vector_baseIdSaIdEEC2Ev	000000000000001b _ZNSt12_Vector_baseIdSaIdEEC2Ev
0000000000000000  w    F .text._ZNSt6vectorIdSaIdEED2Ev	0000000000000044 _ZNSt6vectorIdSaIdEED2Ev
0000000000000000  w    F .text._ZNSt12_Vector_baseIdSaIdEE19_M_get_Tp_allocatorEv	000000000000000e _ZNSt12_Vector_baseIdSaIdEE19_M_get_Tp_allocatorEv
0000000000000000  w    F .text._ZSt8_DestroyIPddEvT_S1_RSaIT0_E	000000000000002a _ZSt8_DestroyIPddEvT_S1_RSaIT0_E
0000000000000000  w    F .text._ZNSt12_Vector_baseIdSaIdEED2Ev	0000000000000050 _ZNSt12_Vector_baseIdSaIdEED2Ev
0000000000000000  w    F .text._ZNKSt7__cxx1112basic_stringIcSt11char_traitsIcESaIcEE4sizeEv	0000000000000012 _ZNKSt7__cxx1112basic_stringIcSt11char_traitsIcESaIcEE4sizeEv
0000000000000000  w    F .text._ZNSt7__cxx1112basic_stringIcSt11char_traitsIcESaIcEE7reserveEm	000000000000017e _ZNSt7__cxx1112basic_stringIcSt11char_traitsIcESaIcEE7reserveEm
0000000000000000  w    F .text._ZNSt7__cxx1112basic_stringIcSt11char_traitsIcESaIcEE6appendERKS4_	0000000000000048 _ZNSt7__cxx1112basic_stringIcSt11char_traitsIcESaIcEE6appendERKS4_
0000000000000000  w    F .text._ZNSt14__shared_countILN9__gnu_cxx12_Lock_policyE2EEC2ERKS2_	000000000000003c _ZNSt14__shared_countILN9__gnu_cxx12_Lock_policyE2EEC2ERKS2_
0000000000000000  w    F .text._ZNSt16_Sp_counted_baseILN9__gnu_cxx12_Lock_policyE2EE15_M_add_ref_copyEv	0000000000000024 _ZNSt16_Sp_counted_baseILN9__gnu_cxx12_Lock_policyE2EE15_M_add_ref_copyEv
0000000000000000  w    F .text._ZNSt12experimental10filesystem2v17__cxx114pathC2IA7_cS3_EERKT_	00000000000000bd _ZNSt12experimental10filesystem2v17__cxx114pathC2IA7_cS3_EERKT_
0000000000000000  w    F .text._ZNSt12experimental10filesystem2v17__cxx114path12_S_range_endIPKcEENS3_17__null_terminatedET_	000000000000000a _ZNSt12experimental10filesystem2v17__cxx114path12_S_range_endIPKcEENS3_17__null_terminatedET_
0000000000000000  w    F .text._ZNSt12experimental10filesystem2v17__cxx114path14_S_range_beginIPKcEET_S7_	000000000000000e _ZNSt12experimental10filesystem2v17__cxx114path14_S_range_beginIPKcEET_S7_
0000000000000000  w    F .text._ZNSt6vectorIiSaIiEED2Ev	0000000000000044 _ZNSt6vectorIiSaIiEED2Ev
0000000000000000  w    F .text._ZNSt12_Vector_baseIiSaIiEE19_M_get_Tp_allocatorEv	000000000000000e _ZNSt12_Vector_baseIiSaIiEE19_M_get_Tp_allocatorEv
0000000000000000  w    F .text._ZSt8_DestroyIPiiEvT_S1_RSaIT0_E	000000000000002a _ZSt8_DestroyIPiiEvT_S1_RSaIT0_E
0000000000000000  w    F .text._ZNSt16allocator_traitsISaIiEE9constructIiJRKiEEEvRS0_PT_DpOT0_	0000000000000039 _ZNSt16allocator_traitsISaIiEE9constructIiJRKiEEEvRS0_PT_DpOT0_
0000000000000000  w    F .text._ZNSt6vectorIiSaIiEE3endEv	000000000000004c _ZNSt6vectorIiSaIiEE3endEv
0000000000000000  w    F .text._ZNSt6vectorIiSaIiEE17_M_realloc_insertIJRKiEEEvN9__gnu_cxx17__normal_iteratorIPiS1_EEDpOT_	000000000000027c _ZNSt6vectorIiSaIiEE17_M_realloc_insertIJRKiEEEvN9__gnu_cxx17__normal_iteratorIPiS1_EEDpOT_
0000000000000000  w    F .text._ZSt4moveIRPiEONSt16remove_referenceIT_E4typeEOS3_	000000000000000e _ZSt4moveIRPiEONSt16remove_referenceIT_E4typeEOS3_
0000000000000000  w    F .text._ZNSt6vectorIPiSaIS0_EE12emplace_backIJS0_EEERS0_DpOT_	00000000000000a5 _ZNSt6vectorIPiSaIS0_EE12emplace_backIJS0_EEERS0_DpOT_
0000000000000000  w    F .text._ZSt4moveIRiEONSt16remove_referenceIT_E4typeEOS2_	000000000000000e _ZSt4moveIRiEONSt16remove_referenceIT_E4typeEOS2_
0000000000000000  w    F .text._ZNSt6vectorIiSaIiEE12emplace_backIJiEEERiDpOT_	00000000000000a5 _ZNSt6vectorIiSaIiEE12emplace_backIJiEEERiDpOT_
0000000000000000  w    F .text._ZNSt8__detail14_Quoted_stringIRNSt7__cxx1112basic_stringIcSt11char_traitsIcESaIcEEEcEC2ES7_cc	0000000000000038 _ZNSt8__detail14_Quoted_stringIRNSt7__cxx1112basic_stringIcSt11char_traitsIcESaIcEEEcEC1ES7_cc
0000000000000000  w    F .text._ZNSt8__detaillsIcSt11char_traitsIcERNSt7__cxx1112basic_stringIcS2_SaIcEEEEERSt13basic_ostreamIT_T0_ESC_RKNS_14_Quoted_stringIT1_S9_EE	0000000000000219 _ZNSt8__detaillsIcSt11char_traitsIcERNSt7__cxx1112basic_stringIcS2_SaIcEEEEERSt13basic_ostreamIT_T0_ESC_RKNS_14_Quoted_stringIT1_S9_EE
0000000000000000  w    F .text._ZNSt12experimental10filesystem2v17__cxx114pathC2IA4_cS3_EERKT_	00000000000000bd _ZNSt12experimental10filesystem2v17__cxx114pathC2IA4_cS3_EERKT_
0000000000000000  w    F .text._ZNSt16allocator_traitsISaIdEE9constructIdJRKdEEEvRS0_PT_DpOT0_	0000000000000039 _ZNSt16allocator_traitsISaIdEE9constructIdJRKdEEEvRS0_PT_DpOT0_
0000000000000000  w    F .text._ZNSt6vectorIdSaIdEE3endEv	000000000000004c _ZNSt6vectorIdSaIdEE3endEv
0000000000000000  w    F .text._ZNSt6vectorIdSaIdEE17_M_realloc_insertIJRKdEEEvN9__gnu_cxx17__normal_iteratorIPdS1_EEDpOT_	000000000000027c _ZNSt6vectorIdSaIdEE17_M_realloc_insertIJRKdEEEvN9__gnu_cxx17__normal_iteratorIPdS1_EEDpOT_
0000000000000000  w    F .text._ZNSt12experimental10filesystem2v17__cxx114pathC2IA8_cS3_EERKT_	00000000000000bd _ZNSt12experimental10filesystem2v17__cxx114pathC2IA8_cS3_EERKT_
0000000000000000  w    F .text._ZSt4moveIRPdEONSt16remove_referenceIT_E4typeEOS3_	000000000000000e _ZSt4moveIRPdEONSt16remove_referenceIT_E4typeEOS3_
0000000000000000  w    F .text._ZNSt6vectorIPdSaIS0_EE12emplace_backIJS0_EEERS0_DpOT_	00000000000000a5 _ZNSt6vectorIPdSaIS0_EE12emplace_backIJS0_EEERS0_DpOT_
0000000000000000  w    F .text._ZNSt12experimental10filesystem2v17__cxx114pathC2IA12_cS3_EERKT_	00000000000000bd _ZNSt12experimental10filesystem2v17__cxx114pathC2IA12_cS3_EERKT_
0000000000000000  w    F .text._ZNSt6vectorIdSaIdEE15_M_erase_at_endEPd	0000000000000045 _ZNSt6vectorIdSaIdEE15_M_erase_at_endEPd
0000000000000000  w    F .text._ZNSt7__cxx1112basic_stringIcSt11char_traitsIcESaIcEE10_M_destroyEm	000000000000004e _ZNSt7__cxx1112basic_stringIcSt11char_traitsIcESaIcEE10_M_destroyEm
0000000000000000  w    F .text._ZNSt14pointer_traitsIPcE10pointer_toERc	000000000000001a _ZNSt14pointer_traitsIPcE10pointer_toERc
0000000000000000  w    F .text._ZNSt7__cxx1112basic_stringIcSt11char_traitsIcESaIcEE12_Alloc_hiderC2EPcRKS3_	0000000000000035 _ZNSt7__cxx1112basic_stringIcSt11char_traitsIcESaIcEE12_Alloc_hiderC2EPcRKS3_
0000000000000000         *UND*	0000000000000000 _ZNSaIcEC2ERKS_
0000000000000000  w    F .text._ZNSt7__cxx1112basic_stringIcSt11char_traitsIcESaIcEE16_M_construct_auxIPKcEEvT_S8_St12__false_type	000000000000005b _ZNSt7__cxx1112basic_stringIcSt11char_traitsIcESaIcEE16_M_construct_auxIPKcEEvT_S8_St12__false_type
0000000000000000  w    F .text._ZNKSt7__cxx1112basic_stringIcSt11char_traitsIcESaIcEE8capacityEv	000000000000002d _ZNKSt7__cxx1112basic_stringIcSt11char_traitsIcESaIcEE8capacityEv
0000000000000000  w    F .text._ZNSt12_Vector_baseINSt12experimental10filesystem2v17__cxx114path5_CmptESaIS5_EE12_Vector_implD2Ev	000000000000001b _ZNSt12_Vector_baseINSt12experimental10filesystem2v17__cxx114path5_CmptESaIS5_EE12_Vector_implD2Ev
0000000000000000  w    F .text._ZNSaINSt12experimental10filesystem2v17__cxx114path5_CmptEED2Ev	000000000000001b _ZNSaINSt12experimental10filesystem2v17__cxx114path5_CmptEED2Ev
0000000000000000  w    F .text._ZNSt12_Vector_baseINSt12experimental10filesystem2v17__cxx114path5_CmptESaIS5_EE12_Vector_implD2Ev	000000000000001b _ZNSt12_Vector_baseINSt12experimental10filesystem2v17__cxx114path5_CmptESaIS5_EE12_Vector_implD1Ev
0000000000000000  w    F .text._ZNSt12_Vector_baseINSt12experimental10filesystem2v17__cxx114path5_CmptESaIS5_EE13_M_deallocateEPS5_m	0000000000000035 _ZNSt12_Vector_baseINSt12experimental10filesystem2v17__cxx114path5_CmptESaIS5_EE13_M_deallocateEPS5_m
0000000000000000  w    F .text._ZNSt12_Vector_baseINSt12experimental10filesystem2v17__cxx114path5_CmptESaIS5_EED2Ev	0000000000000061 _ZNSt12_Vector_baseINSt12experimental10filesystem2v17__cxx114path5_CmptESaIS5_EED1Ev
0000000000000000  w    F .text._ZSt8_DestroyIPNSt12experimental10filesystem2v17__cxx114path5_CmptEEvT_S7_	0000000000000026 _ZSt8_DestroyIPNSt12experimental10filesystem2v17__cxx114path5_CmptEEvT_S7_
0000000000000000  w    F .text._ZNSt7__cxx1112basic_stringIcSt11char_traitsIcESaIcEE12_Alloc_hiderC2EPcOS3_	0000000000000040 _ZNSt7__cxx1112basic_stringIcSt11char_traitsIcESaIcEE12_Alloc_hiderC2EPcOS3_
0000000000000000  w    F .text._ZNSt12_Vector_baseINSt12experimental10filesystem2v17__cxx114path5_CmptESaIS5_EE12_Vector_implC2Ev	000000000000003e _ZNSt12_Vector_baseINSt12experimental10filesystem2v17__cxx114path5_CmptESaIS5_EE12_Vector_implC1Ev
0000000000000000  w    F .text._ZNSt12_Vector_baseINSt12experimental10filesystem2v17__cxx114path5_CmptESaIS5_EEC2Ev	000000000000001b _ZNSt12_Vector_baseINSt12experimental10filesystem2v17__cxx114path5_CmptESaIS5_EEC1Ev
0000000000000000  w    F .text._ZNKSt7__cxx1112basic_stringIcSt11char_traitsIcESaIcEE13_M_local_dataEv	000000000000001e _ZNKSt7__cxx1112basic_stringIcSt11char_traitsIcESaIcEE13_M_local_dataEv
0000000000000000  w    F .text._ZNSt16allocator_traitsISaIcEE37select_on_container_copy_constructionERKS0_	0000000000000029 _ZNSt16allocator_traitsISaIcEE37select_on_container_copy_constructionERKS0_
0000000000000000  w    F .text._ZNSt7__cxx1112basic_stringIcSt11char_traitsIcESaIcEE16_M_construct_auxIPcEEvT_S7_St12__false_type	000000000000005b _ZNSt7__cxx1112basic_stringIcSt11char_traitsIcESaIcEE16_M_construct_auxIPcEEvT_S7_St12__false_type
0000000000000000  w    F .text._ZN9__gnu_cxx13new_allocatorINSt12experimental10filesystem2v17__cxx114path5_CmptEED2Ev	000000000000000b _ZN9__gnu_cxx13new_allocatorINSt12experimental10filesystem2v17__cxx114path5_CmptEED2Ev
0000000000000000  w    F .text._ZNSaINSt12experimental10filesystem2v17__cxx114path5_CmptEED2Ev	000000000000001b _ZNSaINSt12experimental10filesystem2v17__cxx114path5_CmptEED1Ev
0000000000000000  w    F .text._ZNSt16allocator_traitsISaIcEE10deallocateERS0_Pcm	000000000000002e _ZNSt16allocator_traitsISaIcEE10deallocateERS0_Pcm
0000000000000000  w    F .text._ZNSt7__cxx1112basic_stringIcSt11char_traitsIcESaIcEE7_S_copyEPcPKcm	000000000000004a _ZNSt7__cxx1112basic_stringIcSt11char_traitsIcESaIcEE7_S_copyEPcPKcm
0000000000000000  w    F .text._ZNKSt7__cxx1112basic_stringIcSt11char_traitsIcESaIcEE8max_sizeEv	0000000000000029 _ZNKSt7__cxx1112basic_stringIcSt11char_traitsIcESaIcEE8max_sizeEv
0000000000000000         *UND*	0000000000000000 _ZSt20__throw_length_errorPKc
0000000000000000  w    F .text._ZNSt7__cxx1112basic_stringIcSt11char_traitsIcESaIcEE9_M_mutateEmmPKcm	000000000000016d _ZNSt7__cxx1112basic_stringIcSt11char_traitsIcESaIcEE9_M_mutateEmmPKcm
0000000000000000  w    F .text._ZN9__gnu_cxx17__normal_iteratorIPKcNSt7__cxx1112basic_stringIcSt11char_traitsIcESaIcEEEEC2ERKS2_	000000000000001d _ZN9__gnu_cxx17__normal_iteratorIPKcNSt7__cxx1112basic_stringIcSt11char_traitsIcESaIcEEEEC1ERKS2_
0000000000000000  w    F .text._ZNSt7__cxx1112basic_stringIcSt11char_traitsIcESaIcEEC2IN9__gnu_cxx17__normal_iteratorIPKcS4_EEvEET_SB_RKS3_	0000000000000078 _ZNSt7__cxx1112basic_stringIcSt11char_traitsIcESaIcEEC2IN9__gnu_cxx17__normal_iteratorIPKcS4_EEvEET_SB_RKS3_
0000000000000000  w    F .text._ZNSt7__cxx1112basic_stringIcSt11char_traitsIcESaIcEE12_M_constructIN9__gnu_cxx17__normal_iteratorIPKcS4_EEEEvT_SB_	0000000000000038 _ZNSt7__cxx1112basic_stringIcSt11char_traitsIcESaIcEE12_M_constructIN9__gnu_cxx17__normal_iteratorIPKcS4_EEEEvT_SB_
0000000000000000         *UND*	0000000000000000 _ZSt24__throw_out_of_range_fmtPKcz
0000000000000000  w    F .text._ZNSt7__cxx1112basic_stringIcSt11char_traitsIcESaIcEEC2ERKS4_mm	0000000000000100 _ZNSt7__cxx1112basic_stringIcSt11char_traitsIcESaIcEEC2ERKS4_mm
0000000000000000  w    F .text._ZNKSt7__cxx1112basic_stringIcSt11char_traitsIcESaIcEE8_M_limitEmm	000000000000004c _ZNKSt7__cxx1112basic_stringIcSt11char_traitsIcESaIcEE8_M_limitEmm
0000000000000000  w    F .text._ZNSt16allocator_traitsISaIcEE8allocateERS0_m	000000000000002a _ZNSt16allocator_traitsISaIcEE8allocateERS0_m
0000000000000000  w    F .text._ZN9__gnu_cxx13new_allocatorIcE8allocateEmPKv	000000000000003e _ZN9__gnu_cxx13new_allocatorIcE8allocateEmPKv
0000000000000000  w    F .text._ZNSt16allocator_traitsISaINSt12experimental10filesystem2v17__cxx114path5_CmptEEE10deallocateERS6_PS5_m	000000000000002e _ZNSt16allocator_traitsISaINSt12experimental10filesystem2v17__cxx114path5_CmptEEE10deallocateERS6_PS5_m
0000000000000000  w    F .text._ZNSt14__shared_countILN9__gnu_cxx12_Lock_policyE2EE7_M_swapERS2_	0000000000000033 _ZNSt14__shared_countILN9__gnu_cxx12_Lock_policyE2EE7_M_swapERS2_
0000000000000000  w    F .text._ZNSt12__shared_ptrINSt12experimental10filesystem2v17__cxx114_DirELN9__gnu_cxx12_Lock_policyE2EEC2EOS7_	0000000000000057 _ZNSt12__shared_ptrINSt12experimental10filesystem2v17__cxx114_DirELN9__gnu_cxx12_Lock_policyE2EEC1EOS7_
0000000000000000  w    F .text._ZNSt14__shared_countILN9__gnu_cxx12_Lock_policyE2EEC2Ev	0000000000000016 _ZNSt14__shared_countILN9__gnu_cxx12_Lock_policyE2EEC2Ev
0000000000000000  w    F .text._ZNKSt4lessIPSt16_Sp_counted_baseILN9__gnu_cxx12_Lock_policyE2EEEclERKS4_S7_	0000000000000026 _ZNKSt4lessIPSt16_Sp_counted_baseILN9__gnu_cxx12_Lock_policyE2EEEclERKS4_S7_
0000000000000000  w    F .text._ZN9__gnu_cxx13new_allocatorINSt7__cxx1112basic_stringIcSt11char_traitsIcESaIcEEEEC2Ev	000000000000000b _ZN9__gnu_cxx13new_allocatorINSt7__cxx1112basic_stringIcSt11char_traitsIcESaIcEEEEC1Ev
0000000000000000  w    F .text._ZN9__gnu_cxx13new_allocatorINSt7__cxx1112basic_stringIcSt11char_traitsIcESaIcEEEED2Ev	000000000000000b _ZN9__gnu_cxx13new_allocatorINSt7__cxx1112basic_stringIcSt11char_traitsIcESaIcEEEED1Ev
0000000000000000  w    F .text._ZNSt12_Vector_baseINSt7__cxx1112basic_stringIcSt11char_traitsIcESaIcEEESaIS5_EE12_Vector_implD2Ev	000000000000001b _ZNSt12_Vector_baseINSt7__cxx1112basic_stringIcSt11char_traitsIcESaIcEEESaIS5_EE12_Vector_implD2Ev
0000000000000000  w    F .text._ZNSt12_Vector_baseINSt7__cxx1112basic_stringIcSt11char_traitsIcESaIcEEESaIS5_EE12_Vector_implD2Ev	000000000000001b _ZNSt12_Vector_baseINSt7__cxx1112basic_stringIcSt11char_traitsIcESaIcEEESaIS5_EE12_Vector_implD1Ev
0000000000000000  w    F .text._ZNSt12_Vector_baseINSt7__cxx1112basic_stringIcSt11char_traitsIcESaIcEEESaIS5_EE12_Vector_implC2ERKS6_	0000000000000049 _ZNSt12_Vector_baseINSt7__cxx1112basic_stringIcSt11char_traitsIcESaIcEEESaIS5_EE12_Vector_implC1ERKS6_
0000000000000000  w    F .text._ZNSt12_Vector_baseINSt7__cxx1112basic_stringIcSt11char_traitsIcESaIcEEESaIS5_EEC2ERKS6_	0000000000000026 _ZNSt12_Vector_baseINSt7__cxx1112basic_stringIcSt11char_traitsIcESaIcEEESaIS5_EEC1ERKS6_
0000000000000000  w    F .text._ZNSt12_Vector_baseINSt7__cxx1112basic_stringIcSt11char_traitsIcESaIcEEESaIS5_EE13_M_deallocateEPS5_m	0000000000000035 _ZNSt12_Vector_baseINSt7__cxx1112basic_stringIcSt11char_traitsIcESaIcEEESaIS5_EE13_M_deallocateEPS5_m
0000000000000000  w    F .text._ZNSt12_Vector_baseINSt7__cxx1112basic_stringIcSt11char_traitsIcESaIcEEESaIS5_EED2Ev	0000000000000050 _ZNSt12_Vector_baseINSt7__cxx1112basic_stringIcSt11char_traitsIcESaIcEEESaIS5_EED1Ev
0000000000000000  w    F .text._ZSt19__iterator_categoryIPKNSt7__cxx1112basic_stringIcSt11char_traitsIcESaIcEEEENSt15iterator_traitsIT_E17iterator_categoryERKS9_	000000000000000a _ZSt19__iterator_categoryIPKNSt7__cxx1112basic_stringIcSt11char_traitsIcESaIcEEEENSt15iterator_traitsIT_E17iterator_categoryERKS9_
0000000000000000  w    F .text._ZSt8distanceIPKNSt7__cxx1112basic_stringIcSt11char_traitsIcESaIcEEEENSt15iterator_traitsIT_E15difference_typeES9_S9_	000000000000003f _ZSt8distanceIPKNSt7__cxx1112basic_stringIcSt11char_traitsIcESaIcEEEENSt15iterator_traitsIT_E15difference_typeES9_S9_
0000000000000000  w    F .text._ZSt10__distanceIPKNSt7__cxx1112basic_stringIcSt11char_traitsIcESaIcEEEENSt15iterator_traitsIT_E15difference_typeES9_S9_St26random_access_iterator_tag	0000000000000020 _ZSt10__distanceIPKNSt7__cxx1112basic_stringIcSt11char_traitsIcESaIcEEEENSt15iterator_traitsIT_E15difference_typeES9_S9_St26random_access_iterator_tag
0000000000000000  w    F .text._ZNSt12_Vector_baseINSt7__cxx1112basic_stringIcSt11char_traitsIcESaIcEEESaIS5_EE11_M_allocateEm	0000000000000033 _ZNSt12_Vector_baseINSt7__cxx1112basic_stringIcSt11char_traitsIcESaIcEEESaIS5_EE11_M_allocateEm
0000000000000000  w    F .text._ZSt22__uninitialized_copy_aIPKNSt7__cxx1112basic_stringIcSt11char_traitsIcESaIcEEEPS5_S5_ET0_T_SA_S9_RSaIT1_E	0000000000000031 _ZSt22__uninitialized_copy_aIPKNSt7__cxx1112basic_stringIcSt11char_traitsIcESaIcEEEPS5_S5_ET0_T_SA_S9_RSaIT1_E
0000000000000000  w    F .text._ZSt8_DestroyIPNSt7__cxx1112basic_stringIcSt11char_traitsIcESaIcEEEEvT_S7_	0000000000000026 _ZSt8_DestroyIPNSt7__cxx1112basic_stringIcSt11char_traitsIcESaIcEEEEvT_S7_
0000000000000000  w    F .text._ZN9__gnu_cxx13new_allocatorIiEC2Ev	000000000000000b _ZN9__gnu_cxx13new_allocatorIiEC1Ev
0000000000000000  w    F .text._ZN9__gnu_cxx13new_allocatorIiED2Ev	000000000000000b _ZN9__gnu_cxx13new_allocatorIiED1Ev
0000000000000000  w    F .text._ZNSt12_Vector_baseIiSaIiEE12_Vector_implD2Ev	000000000000001b _ZNSt12_Vector_baseIiSaIiEE12_Vector_implD2Ev
0000000000000000  w    F .text._ZNSt12_Vector_baseIiSaIiEE12_Vector_implD2Ev	000000000000001b _ZNSt12_Vector_baseIiSaIiEE12_Vector_implD1Ev
0000000000000000  w    F .text._ZNSt12_Vector_baseIiSaIiEE12_Vector_implC2ERKS0_	0000000000000049 _ZNSt12_Vector_baseIiSaIiEE12_Vector_implC1ERKS0_
0000000000000000  w    F .text._ZNSt12_Vector_baseIiSaIiEEC2ERKS0_	0000000000000026 _ZNSt12_Vector_baseIiSaIiEEC1ERKS0_
0000000000000000  w    F .text._ZNSt12_Vector_baseIiSaIiEE13_M_deallocateEPim	0000000000000035 _ZNSt12_Vector_baseIiSaIiEE13_M_deallocateEPim
0000000000000000  w    F .text._ZNSt12_Vector_baseIiSaIiEED2Ev	0000000000000050 _ZNSt12_Vector_baseIiSaIiEED1Ev
0000000000000000  w    F .text._ZSt19__iterator_categoryIPKiENSt15iterator_traitsIT_E17iterator_categoryERKS3_	000000000000000a _ZSt19__iterator_categoryIPKiENSt15iterator_traitsIT_E17iterator_categoryERKS3_
0000000000000000  w    F .text._ZSt8distanceIPKiENSt15iterator_traitsIT_E15difference_typeES3_S3_	000000000000003f _ZSt8distanceIPKiENSt15iterator_traitsIT_E15difference_typeES3_S3_
0000000000000000  w    F .text._ZSt10__distanceIPKiENSt15iterator_traitsIT_E15difference_typeES3_S3_St26random_access_iterator_tag	0000000000000020 _ZSt10__distanceIPKiENSt15iterator_traitsIT_E15difference_typeES3_S3_St26random_access_iterator_tag
0000000000000000  w    F .text._ZNSt12_Vector_baseIiSaIiEE11_M_allocateEm	0000000000000033 _ZNSt12_Vector_baseIiSaIiEE11_M_allocateEm
0000000000000000  w    F .text._ZSt22__uninitialized_copy_aIPKiPiiET0_T_S4_S3_RSaIT1_E	0000000000000031 _ZSt22__uninitialized_copy_aIPKiPiiET0_T_S4_S3_RSaIT1_E
0000000000000000  w    F .text._ZNSt12_Vector_baseIPdSaIS0_EE12_Vector_implD2Ev	000000000000001b _ZNSt12_Vector_baseIPdSaIS0_EE12_Vector_implD2Ev
0000000000000000  w    F .text._ZNSaIPdED2Ev	000000000000001b _ZNSaIPdED2Ev
0000000000000000  w    F .text._ZNSt12_Vector_baseIPdSaIS0_EE12_Vector_implD2Ev	000000000000001b _ZNSt12_Vector_baseIPdSaIS0_EE12_Vector_implD1Ev
0000000000000000  w    F .text._ZNSt12_Vector_baseIPdSaIS0_EE12_Vector_implC2Ev	000000000000003e _ZNSt12_Vector_baseIPdSaIS0_EE12_Vector_implC1Ev
0000000000000000  w    F .text._ZNSt12_Vector_baseIPdSaIS0_EEC2Ev	000000000000001b _ZNSt12_Vector_baseIPdSaIS0_EEC1Ev
0000000000000000  w    F .text._ZNSt12_Vector_baseIPdSaIS0_EED2Ev	0000000000000050 _ZNSt12_Vector_baseIPdSaIS0_EED2Ev
0000000000000000  w    F .text._ZNSt12_Vector_baseIPdSaIS0_EE13_M_deallocateEPS0_m	0000000000000035 _ZNSt12_Vector_baseIPdSaIS0_EE13_M_deallocateEPS0_m
0000000000000000  w    F .text._ZNSt12_Vector_baseIPdSaIS0_EED2Ev	0000000000000050 _ZNSt12_Vector_baseIPdSaIS0_EED1Ev
0000000000000000  w    F .text._ZNSt12_Vector_baseIPiSaIS0_EE12_Vector_implD2Ev	000000000000001b _ZNSt12_Vector_baseIPiSaIS0_EE12_Vector_implD2Ev
0000000000000000  w    F .text._ZNSaIPiED2Ev	000000000000001b _ZNSaIPiED2Ev
0000000000000000  w    F .text._ZNSt12_Vector_baseIPiSaIS0_EE12_Vector_implD2Ev	000000000000001b _ZNSt12_Vector_baseIPiSaIS0_EE12_Vector_implD1Ev
0000000000000000  w    F .text._ZNSt12_Vector_baseIPiSaIS0_EE12_Vector_implC2Ev	000000000000003e _ZNSt12_Vector_baseIPiSaIS0_EE12_Vector_implC1Ev
0000000000000000  w    F .text._ZNSt12_Vector_baseIPiSaIS0_EEC2Ev	000000000000001b _ZNSt12_Vector_baseIPiSaIS0_EEC1Ev
0000000000000000  w    F .text._ZNSt12_Vector_baseIPiSaIS0_EED2Ev	0000000000000050 _ZNSt12_Vector_baseIPiSaIS0_EED2Ev
0000000000000000  w    F .text._ZNSt12_Vector_baseIPiSaIS0_EE13_M_deallocateEPS0_m	0000000000000035 _ZNSt12_Vector_baseIPiSaIS0_EE13_M_deallocateEPS0_m
0000000000000000  w    F .text._ZNSt12_Vector_baseIPiSaIS0_EED2Ev	0000000000000050 _ZNSt12_Vector_baseIPiSaIS0_EED1Ev
0000000000000000  w    F .text._ZNSt12_Vector_baseIiSaIiEE12_Vector_implC2Ev	000000000000003e _ZNSt12_Vector_baseIiSaIiEE12_Vector_implC1Ev
0000000000000000  w    F .text._ZNSt12_Vector_baseIiSaIiEEC2Ev	000000000000001b _ZNSt12_Vector_baseIiSaIiEEC1Ev
0000000000000000  w    F .text._ZSt7forwardIRKPdEOT_RNSt16remove_referenceIS3_E4typeE	000000000000000e _ZSt7forwardIRKPdEOT_RNSt16remove_referenceIS3_E4typeE
0000000000000000  w    F .text._ZN9__gnu_cxx13new_allocatorIPdE9constructIS1_JRKS1_EEEvPT_DpOT0_	0000000000000040 _ZN9__gnu_cxx13new_allocatorIPdE9constructIS1_JRKS1_EEEvPT_DpOT0_
0000000000000000  w    F .text._ZN9__gnu_cxx17__normal_iteratorIPPdSt6vectorIS1_SaIS1_EEEC2ERKS2_	000000000000001d _ZN9__gnu_cxx17__normal_iteratorIPPdSt6vectorIS1_SaIS1_EEEC1ERKS2_
0000000000000000  w    F .text._ZNKSt6vectorIPdSaIS0_EE12_M_check_lenEmPKc	00000000000000ec _ZNKSt6vectorIPdSaIS0_EE12_M_check_lenEmPKc
0000000000000000  w    F .text._ZNSt6vectorIPdSaIS0_EE5beginEv	0000000000000048 _ZNSt6vectorIPdSaIS0_EE5beginEv
0000000000000000  w    F .text._ZN9__gnu_cxxmiIPPdSt6vectorIS1_SaIS1_EEEENS_17__normal_iteratorIT_T0_E15difference_typeERKS9_SC_	0000000000000043 _ZN9__gnu_cxxmiIPPdSt6vectorIS1_SaIS1_EEEENS_17__normal_iteratorIT_T0_E15difference_typeERKS9_SC_
0000000000000000  w    F .text._ZNSt12_Vector_baseIPdSaIS0_EE11_M_allocateEm	0000000000000033 _ZNSt12_Vector_baseIPdSaIS0_EE11_M_allocateEm
0000000000000000  w    F .text._ZNSt12_Vector_baseIPdSaIS0_EE19_M_get_Tp_allocatorEv	000000000000000e _ZNSt12_Vector_baseIPdSaIS0_EE19_M_get_Tp_allocatorEv
0000000000000000  w    F .text._ZNK9__gnu_cxx17__normal_iteratorIPPdSt6vectorIS1_SaIS1_EEE4baseEv	000000000000000e _ZNK9__gnu_cxx17__normal_iteratorIPPdSt6vectorIS1_SaIS1_EEE4baseEv
0000000000000000  w    F .text._ZSt34__uninitialized_move_if_noexcept_aIPPdS1_SaIS0_EET0_T_S4_S3_RT1_	0000000000000054 _ZSt34__uninitialized_move_if_noexcept_aIPPdS1_SaIS0_EET0_T_S4_S3_RT1_
0000000000000000  w    F .text._ZSt8_DestroyIPPdS0_EvT_S2_RSaIT0_E	000000000000002a _ZSt8_DestroyIPPdS0_EvT_S2_RSaIT0_E
0000000000000000         *UND*	0000000000000000 __cxa_begin_catch
0000000000000000  w    F .text._ZNSt16allocator_traitsISaIPdEE7destroyIS0_EEvRS1_PT_	0000000000000026 _ZNSt16allocator_traitsISaIPdEE7destroyIS0_EEvRS1_PT_
0000000000000000         *UND*	0000000000000000 __cxa_rethrow
0000000000000000         *UND*	0000000000000000 __cxa_end_catch
0000000000000000  w    F .text._ZSt7forwardIRKPiEOT_RNSt16remove_referenceIS3_E4typeE	000000000000000e _ZSt7forwardIRKPiEOT_RNSt16remove_referenceIS3_E4typeE
0000000000000000  w    F .text._ZN9__gnu_cxx13new_allocatorIPiE9constructIS1_JRKS1_EEEvPT_DpOT0_	0000000000000040 _ZN9__gnu_cxx13new_allocatorIPiE9constructIS1_JRKS1_EEEvPT_DpOT0_
0000000000000000  w    F .text._ZN9__gnu_cxx17__normal_iteratorIPPiSt6vectorIS1_SaIS1_EEEC2ERKS2_	000000000000001d _ZN9__gnu_cxx17__normal_iteratorIPPiSt6vectorIS1_SaIS1_EEEC1ERKS2_
0000000000000000  w    F .text._ZNKSt6vectorIPiSaIS0_EE12_M_check_lenEmPKc	00000000000000ec _ZNKSt6vectorIPiSaIS0_EE12_M_check_lenEmPKc
0000000000000000  w    F .text._ZNSt6vectorIPiSaIS0_EE5beginEv	0000000000000048 _ZNSt6vectorIPiSaIS0_EE5beginEv
0000000000000000  w    F .text._ZN9__gnu_cxxmiIPPiSt6vectorIS1_SaIS1_EEEENS_17__normal_iteratorIT_T0_E15difference_typeERKS9_SC_	0000000000000043 _ZN9__gnu_cxxmiIPPiSt6vectorIS1_SaIS1_EEEENS_17__normal_iteratorIT_T0_E15difference_typeERKS9_SC_
0000000000000000  w    F .text._ZNSt12_Vector_baseIPiSaIS0_EE11_M_allocateEm	0000000000000033 _ZNSt12_Vector_baseIPiSaIS0_EE11_M_allocateEm
0000000000000000  w    F .text._ZNSt12_Vector_baseIPiSaIS0_EE19_M_get_Tp_allocatorEv	000000000000000e _ZNSt12_Vector_baseIPiSaIS0_EE19_M_get_Tp_allocatorEv
0000000000000000  w    F .text._ZNK9__gnu_cxx17__normal_iteratorIPPiSt6vectorIS1_SaIS1_EEE4baseEv	000000000000000e _ZNK9__gnu_cxx17__normal_iteratorIPPiSt6vectorIS1_SaIS1_EEE4baseEv
0000000000000000  w    F .text._ZSt34__uninitialized_move_if_noexcept_aIPPiS1_SaIS0_EET0_T_S4_S3_RT1_	0000000000000054 _ZSt34__uninitialized_move_if_noexcept_aIPPiS1_SaIS0_EET0_T_S4_S3_RT1_
0000000000000000  w    F .text._ZSt8_DestroyIPPiS0_EvT_S2_RSaIT0_E	000000000000002a _ZSt8_DestroyIPPiS0_EvT_S2_RSaIT0_E
0000000000000000  w    F .text._ZNSt16allocator_traitsISaIPiEE7destroyIS0_EEvRS1_PT_	0000000000000026 _ZNSt16allocator_traitsISaIPiEE7destroyIS0_EEvRS1_PT_
0000000000000000  w    F .text._ZNSt12_Vector_baseIdSaIdEE12_Vector_implD2Ev	000000000000001b _ZNSt12_Vector_baseIdSaIdEE12_Vector_implD2Ev
0000000000000000  w    F .text._ZNSaIdED2Ev	000000000000001b _ZNSaIdED2Ev
0000000000000000  w    F .text._ZNSt12_Vector_baseIdSaIdEE12_Vector_implD2Ev	000000000000001b _ZNSt12_Vector_baseIdSaIdEE12_Vector_implD1Ev
0000000000000000  w    F .text._ZNSt12_Vector_baseIdSaIdEE12_Vector_implC2Ev	000000000000003e _ZNSt12_Vector_baseIdSaIdEE12_Vector_implC1Ev
0000000000000000  w    F .text._ZNSt12_Vector_baseIdSaIdEEC2Ev	000000000000001b _ZNSt12_Vector_baseIdSaIdEEC1Ev
0000000000000000  w    F .text._ZNSt12_Vector_baseIdSaIdEE13_M_deallocateEPdm	0000000000000035 _ZNSt12_Vector_baseIdSaIdEE13_M_deallocateEPdm
0000000000000000  w    F .text._ZNSt12_Vector_baseIdSaIdEED2Ev	0000000000000050 _ZNSt12_Vector_baseIdSaIdEED1Ev
0000000000000000  w    F .text._ZSt8_DestroyIPdEvT_S1_	0000000000000026 _ZSt8_DestroyIPdEvT_S1_
0000000000000000  w    F .text._ZNSt7__cxx1112basic_stringIcSt11char_traitsIcESaIcEE9_M_createERmm	00000000000000c9 _ZNSt7__cxx1112basic_stringIcSt11char_traitsIcESaIcEE9_M_createERmm
0000000000000000  w    F .text._ZSt8_DestroyIPiEvT_S1_	0000000000000026 _ZSt8_DestroyIPiEvT_S1_
0000000000000000  w    F .text._ZSt7forwardIRKiEOT_RNSt16remove_referenceIS2_E4typeE	000000000000000e _ZSt7forwardIRKiEOT_RNSt16remove_referenceIS2_E4typeE
0000000000000000  w    F .text._ZN9__gnu_cxx13new_allocatorIiE9constructIiJRKiEEEvPT_DpOT0_	000000000000003e _ZN9__gnu_cxx13new_allocatorIiE9constructIiJRKiEEEvPT_DpOT0_
0000000000000000  w    F .text._ZN9__gnu_cxx17__normal_iteratorIPiSt6vectorIiSaIiEEEC2ERKS1_	000000000000001d _ZN9__gnu_cxx17__normal_iteratorIPiSt6vectorIiSaIiEEEC1ERKS1_
0000000000000000  w    F .text._ZNKSt6vectorIiSaIiEE12_M_check_lenEmPKc	00000000000000ec _ZNKSt6vectorIiSaIiEE12_M_check_lenEmPKc
0000000000000000  w    F .text._ZNSt6vectorIiSaIiEE5beginEv	0000000000000048 _ZNSt6vectorIiSaIiEE5beginEv
0000000000000000  w    F .text._ZN9__gnu_cxxmiIPiSt6vectorIiSaIiEEEENS_17__normal_iteratorIT_T0_E15difference_typeERKS8_SB_	0000000000000043 _ZN9__gnu_cxxmiIPiSt6vectorIiSaIiEEEENS_17__normal_iteratorIT_T0_E15difference_typeERKS8_SB_
0000000000000000  w    F .text._ZNK9__gnu_cxx17__normal_iteratorIPiSt6vectorIiSaIiEEE4baseEv	000000000000000e _ZNK9__gnu_cxx17__normal_iteratorIPiSt6vectorIiSaIiEEE4baseEv
0000000000000000  w    F .text._ZSt34__uninitialized_move_if_noexcept_aIPiS0_SaIiEET0_T_S3_S2_RT1_	0000000000000054 _ZSt34__uninitialized_move_if_noexcept_aIPiS0_SaIiEET0_T_S3_S2_RT1_
0000000000000000  w    F .text._ZNSt16allocator_traitsISaIiEE7destroyIiEEvRS0_PT_	0000000000000026 _ZNSt16allocator_traitsISaIiEE7destroyIiEEvRS0_PT_
0000000000000000  w    F .text._ZSt7forwardIPiEOT_RNSt16remove_referenceIS1_E4typeE	000000000000000e _ZSt7forwardIPiEOT_RNSt16remove_referenceIS1_E4typeE
0000000000000000  w    F .text._ZNSt16allocator_traitsISaIPiEE9constructIS0_JS0_EEEvRS1_PT_DpOT0_	0000000000000039 _ZNSt16allocator_traitsISaIPiEE9constructIS0_JS0_EEEvRS1_PT_DpOT0_
0000000000000000  w    F .text._ZNSt6vectorIPiSaIS0_EE17_M_realloc_insertIJS0_EEEvN9__gnu_cxx17__normal_iteratorIPS0_S2_EEDpOT_	000000000000027c _ZNSt6vectorIPiSaIS0_EE17_M_realloc_insertIJS0_EEEvN9__gnu_cxx17__normal_iteratorIPS0_S2_EEDpOT_
0000000000000000  w    F .text._ZNSt6vectorIPiSaIS0_EE4backEv	0000000000000062 _ZNSt6vectorIPiSaIS0_EE4backEv
0000000000000000  w    F .text._ZNSt16allocator_traitsISaIiEE9constructIiJiEEEvRS0_PT_DpOT0_	0000000000000039 _ZNSt16allocator_traitsISaIiEE9constructIiJiEEEvRS0_PT_DpOT0_
0000000000000000  w    F .text._ZNSt6vectorIiSaIiEE17_M_realloc_insertIJiEEEvN9__gnu_cxx17__normal_iteratorIPiS1_EEDpOT_	000000000000027c _ZNSt6vectorIiSaIiEE17_M_realloc_insertIJiEEEvN9__gnu_cxx17__normal_iteratorIPiS1_EEDpOT_
0000000000000000  w    F .text._ZNSt6vectorIiSaIiEE4backEv	0000000000000062 _ZNSt6vectorIiSaIiEE4backEv
0000000000000000  w    F .text._ZNSt8__detail14_Quoted_stringIRNSt7__cxx1112basic_stringIcSt11char_traitsIcESaIcEEEcEC2ES7_cc	0000000000000038 _ZNSt8__detail14_Quoted_stringIRNSt7__cxx1112basic_stringIcSt11char_traitsIcESaIcEEEcEC2ES7_cc
0000000000000000         *UND*	0000000000000000 _ZNSt7__cxx1119basic_ostringstreamIcSt11char_traitsIcESaIcEEC1ESt13_Ios_Openmode
0000000000000000         *UND*	0000000000000000 _ZStlsISt11char_traitsIcEERSt13basic_ostreamIcT_ES5_c
0000000000000000  w    F .text._ZNSt7__cxx1112basic_stringIcSt11char_traitsIcESaIcEE5beginEv	0000000000000058 _ZNSt7__cxx1112basic_stringIcSt11char_traitsIcESaIcEE5beginEv
0000000000000000  w    F .text._ZNSt7__cxx1112basic_stringIcSt11char_traitsIcESaIcEE3endEv	0000000000000070 _ZNSt7__cxx1112basic_stringIcSt11char_traitsIcESaIcEE3endEv
0000000000000000  w    F .text._ZN9__gnu_cxxneIPcNSt7__cxx1112basic_stringIcSt11char_traitsIcESaIcEEEEEbRKNS_17__normal_iteratorIT_T0_EESD_	000000000000003c _ZN9__gnu_cxxneIPcNSt7__cxx1112basic_stringIcSt11char_traitsIcESaIcEEEEEbRKNS_17__normal_iteratorIT_T0_EESD_
0000000000000000  w    F .text._ZNK9__gnu_cxx17__normal_iteratorIPcNSt7__cxx1112basic_stringIcSt11char_traitsIcESaIcEEEEdeEv	0000000000000011 _ZNK9__gnu_cxx17__normal_iteratorIPcNSt7__cxx1112basic_stringIcSt11char_traitsIcESaIcEEEEdeEv
0000000000000000  w    F .text._ZN9__gnu_cxx17__normal_iteratorIPcNSt7__cxx1112basic_stringIcSt11char_traitsIcESaIcEEEEppEv	0000000000000020 _ZN9__gnu_cxx17__normal_iteratorIPcNSt7__cxx1112basic_stringIcSt11char_traitsIcESaIcEEEEppEv
0000000000000000         *UND*	0000000000000000 _ZNKSt7__cxx1119basic_ostringstreamIcSt11char_traitsIcESaIcEE3strEv
0000000000000000         *UND*	0000000000000000 _ZNSt7__cxx1119basic_ostringstreamIcSt11char_traitsIcESaIcEED1Ev
0000000000000000  w    F .text._ZSt7forwardIRKdEOT_RNSt16remove_referenceIS2_E4typeE	000000000000000e _ZSt7forwardIRKdEOT_RNSt16remove_referenceIS2_E4typeE
0000000000000000  w    F .text._ZN9__gnu_cxx13new_allocatorIdE9constructIdJRKdEEEvPT_DpOT0_	0000000000000046 _ZN9__gnu_cxx13new_allocatorIdE9constructIdJRKdEEEvPT_DpOT0_
0000000000000000  w    F .text._ZN9__gnu_cxx17__normal_iteratorIPdSt6vectorIdSaIdEEEC2ERKS1_	000000000000001d _ZN9__gnu_cxx17__normal_iteratorIPdSt6vectorIdSaIdEEEC1ERKS1_
0000000000000000  w    F .text._ZNKSt6vectorIdSaIdEE12_M_check_lenEmPKc	00000000000000ec _ZNKSt6vectorIdSaIdEE12_M_check_lenEmPKc
0000000000000000  w    F .text._ZNSt6vectorIdSaIdEE5beginEv	0000000000000048 _ZNSt6vectorIdSaIdEE5beginEv
0000000000000000  w    F .text._ZN9__gnu_cxxmiIPdSt6vectorIdSaIdEEEENS_17__normal_iteratorIT_T0_E15difference_typeERKS8_SB_	0000000000000043 _ZN9__gnu_cxxmiIPdSt6vectorIdSaIdEEEENS_17__normal_iteratorIT_T0_E15difference_typeERKS8_SB_
0000000000000000  w    F .text._ZNSt12_Vector_baseIdSaIdEE11_M_allocateEm	0000000000000033 _ZNSt12_Vector_baseIdSaIdEE11_M_allocateEm
0000000000000000  w    F .text._ZNK9__gnu_cxx17__normal_iteratorIPdSt6vectorIdSaIdEEE4baseEv	000000000000000e _ZNK9__gnu_cxx17__normal_iteratorIPdSt6vectorIdSaIdEEE4baseEv
0000000000000000  w    F .text._ZSt34__uninitialized_move_if_noexcept_aIPdS0_SaIdEET0_T_S3_S2_RT1_	0000000000000054 _ZSt34__uninitialized_move_if_noexcept_aIPdS0_SaIdEET0_T_S3_S2_RT1_
0000000000000000  w    F .text._ZNSt16allocator_traitsISaIdEE7destroyIdEEvRS0_PT_	0000000000000026 _ZNSt16allocator_traitsISaIdEE7destroyIdEEvRS0_PT_
0000000000000000  w    F .text._ZSt7forwardIPdEOT_RNSt16remove_referenceIS1_E4typeE	000000000000000e _ZSt7forwardIPdEOT_RNSt16remove_referenceIS1_E4typeE
0000000000000000  w    F .text._ZNSt16allocator_traitsISaIPdEE9constructIS0_JS0_EEEvRS1_PT_DpOT0_	0000000000000039 _ZNSt16allocator_traitsISaIPdEE9constructIS0_JS0_EEEvRS1_PT_DpOT0_
0000000000000000  w    F .text._ZNSt6vectorIPdSaIS0_EE17_M_realloc_insertIJS0_EEEvN9__gnu_cxx17__normal_iteratorIPS0_S2_EEDpOT_	000000000000027c _ZNSt6vectorIPdSaIS0_EE17_M_realloc_insertIJS0_EEEvN9__gnu_cxx17__normal_iteratorIPS0_S2_EEDpOT_
0000000000000000  w    F .text._ZNSt6vectorIPdSaIS0_EE4backEv	0000000000000062 _ZNSt6vectorIPdSaIS0_EE4backEv
0000000000000000  w    F .text._ZSt9addressofIcEPT_RS0_	000000000000001a _ZSt9addressofIcEPT_RS0_
0000000000000000  w    F .text._ZNSt7__cxx1112basic_stringIcSt11char_traitsIcESaIcEE12_M_constructIPKcEEvT_S8_St20forward_iterator_tag	0000000000000103 _ZNSt7__cxx1112basic_stringIcSt11char_traitsIcESaIcEE12_M_constructIPKcEEvT_S8_St20forward_iterator_tag
0000000000000000  w    F .text._ZNSt12_Destroy_auxILb0EE9__destroyIPNSt12experimental10filesystem2v17__cxx114path5_CmptEEEvT_S9_	0000000000000038 _ZNSt12_Destroy_auxILb0EE9__destroyIPNSt12experimental10filesystem2v17__cxx114path5_CmptEEEvT_S9_
0000000000000000  w    F .text._ZNSt12_Vector_baseINSt12experimental10filesystem2v17__cxx114path5_CmptESaIS5_EE12_Vector_implC2Ev	000000000000003e _ZNSt12_Vector_baseINSt12experimental10filesystem2v17__cxx114path5_CmptESaIS5_EE12_Vector_implC2Ev
0000000000000000  w    F .text._ZNSaINSt12experimental10filesystem2v17__cxx114path5_CmptEEC2Ev	000000000000001b _ZNSaINSt12experimental10filesystem2v17__cxx114path5_CmptEEC2Ev
0000000000000000  w    F .text._ZNSt14pointer_traitsIPKcE10pointer_toERS0_	000000000000001a _ZNSt14pointer_traitsIPKcE10pointer_toERS0_
0000000000000000         *UND*	0000000000000000 _ZNSaIcEC1ERKS_
0000000000000000  w    F .text._ZNSt7__cxx1112basic_stringIcSt11char_traitsIcESaIcEE12_M_constructIPcEEvT_S7_St20forward_iterator_tag	0000000000000103 _ZNSt7__cxx1112basic_stringIcSt11char_traitsIcESaIcEE12_M_constructIPcEEvT_S7_St20forward_iterator_tag
0000000000000000  w    F .text._ZN9__gnu_cxx13new_allocatorINSt12experimental10filesystem2v17__cxx114path5_CmptEED2Ev	000000000000000b _ZN9__gnu_cxx13new_allocatorINSt12experimental10filesystem2v17__cxx114path5_CmptEED1Ev
0000000000000000  w    F .text._ZN9__gnu_cxx13new_allocatorIcE10deallocateEPcm	0000000000000022 _ZN9__gnu_cxx13new_allocatorIcE10deallocateEPcm
0000000000000000  w    F .text._ZNSt16allocator_traitsISaIcEE8max_sizeERKS0_	000000000000001a _ZNSt16allocator_traitsISaIcEE8max_sizeERKS0_
0000000000000000  w    F .text._ZN9__gnu_cxx17__normal_iteratorIPKcNSt7__cxx1112basic_stringIcSt11char_traitsIcESaIcEEEEC2ERKS2_	000000000000001d _ZN9__gnu_cxx17__normal_iteratorIPKcNSt7__cxx1112basic_stringIcSt11char_traitsIcESaIcEEEEC2ERKS2_
0000000000000000  w    F .text._ZNSt7__cxx1112basic_stringIcSt11char_traitsIcESaIcEE16_M_construct_auxIN9__gnu_cxx17__normal_iteratorIPKcS4_EEEEvT_SB_St12__false_type	000000000000005b _ZNSt7__cxx1112basic_stringIcSt11char_traitsIcESaIcEE16_M_construct_auxIN9__gnu_cxx17__normal_iteratorIPKcS4_EEEEvT_SB_St12__false_type
0000000000000000  w    F .text._ZNK9__gnu_cxx13new_allocatorIcE8max_sizeEv	0000000000000011 _ZNK9__gnu_cxx13new_allocatorIcE8max_sizeEv
0000000000000000         *UND*	0000000000000000 _ZSt17__throw_bad_allocv
0000000000000000  w    F .text._ZN9__gnu_cxx13new_allocatorINSt12experimental10filesystem2v17__cxx114path5_CmptEE10deallocateEPS6_m	0000000000000022 _ZN9__gnu_cxx13new_allocatorINSt12experimental10filesystem2v17__cxx114path5_CmptEE10deallocateEPS6_m
0000000000000000  w    F .text._ZNSt12_Vector_baseINSt7__cxx1112basic_stringIcSt11char_traitsIcESaIcEEESaIS5_EE12_Vector_implC2ERKS6_	0000000000000049 _ZNSt12_Vector_baseINSt7__cxx1112basic_stringIcSt11char_traitsIcESaIcEEESaIS5_EE12_Vector_implC2ERKS6_
0000000000000000  w    F .text._ZNSaINSt7__cxx1112basic_stringIcSt11char_traitsIcESaIcEEEEC2ERKS5_	0000000000000026 _ZNSaINSt7__cxx1112basic_stringIcSt11char_traitsIcESaIcEEEEC2ERKS5_
0000000000000000  w    F .text._ZNSt16allocator_traitsISaINSt7__cxx1112basic_stringIcSt11char_traitsIcESaIcEEEEE10deallocateERS6_PS5_m	000000000000002e _ZNSt16allocator_traitsISaINSt7__cxx1112basic_stringIcSt11char_traitsIcESaIcEEEEE10deallocateERS6_PS5_m
0000000000000000  w    F .text._ZNSt16allocator_traitsISaINSt7__cxx1112basic_stringIcSt11char_traitsIcESaIcEEEEE8allocateERS6_m	000000000000002a _ZNSt16allocator_traitsISaINSt7__cxx1112basic_stringIcSt11char_traitsIcESaIcEEEEE8allocateERS6_m
0000000000000000  w    F .text._ZSt18uninitialized_copyIPKNSt7__cxx1112basic_stringIcSt11char_traitsIcESaIcEEEPS5_ET0_T_SA_S9_	0000000000000031 _ZSt18uninitialized_copyIPKNSt7__cxx1112basic_stringIcSt11char_traitsIcESaIcEEEPS5_ET0_T_SA_S9_
0000000000000000  w    F .text._ZNSt12_Destroy_auxILb0EE9__destroyIPNSt7__cxx1112basic_stringIcSt11char_traitsIcESaIcEEEEEvT_S9_	0000000000000038 _ZNSt12_Destroy_auxILb0EE9__destroyIPNSt7__cxx1112basic_stringIcSt11char_traitsIcESaIcEEEEEvT_S9_
0000000000000000  w    F .text._ZNSt12_Vector_baseIiSaIiEE12_Vector_implC2ERKS0_	0000000000000049 _ZNSt12_Vector_baseIiSaIiEE12_Vector_implC2ERKS0_
0000000000000000  w    F .text._ZNSaIiEC2ERKS_	0000000000000026 _ZNSaIiEC2ERKS_
0000000000000000  w    F .text._ZNSt16allocator_traitsISaIiEE10deallocateERS0_Pim	000000000000002e _ZNSt16allocator_traitsISaIiEE10deallocateERS0_Pim
0000000000000000  w    F .text._ZNSt16allocator_traitsISaIiEE8allocateERS0_m	000000000000002a _ZNSt16allocator_traitsISaIiEE8allocateERS0_m
0000000000000000  w    F .text._ZSt18uninitialized_copyIPKiPiET0_T_S4_S3_	0000000000000031 _ZSt18uninitialized_copyIPKiPiET0_T_S4_S3_
0000000000000000  w    F .text._ZNSt12_Vector_baseIPdSaIS0_EE12_Vector_implC2Ev	000000000000003e _ZNSt12_Vector_baseIPdSaIS0_EE12_Vector_implC2Ev
0000000000000000  w    F .text._ZNSaIPdEC2Ev	000000000000001b _ZNSaIPdEC2Ev
0000000000000000  w    F .text._ZN9__gnu_cxx13new_allocatorIPdED2Ev	000000000000000b _ZN9__gnu_cxx13new_allocatorIPdED2Ev
0000000000000000  w    F .text._ZNSaIPdED2Ev	000000000000001b _ZNSaIPdED1Ev
0000000000000000  w    F .text._ZNSt16allocator_traitsISaIPdEE10deallocateERS1_PS0_m	000000000000002e _ZNSt16allocator_traitsISaIPdEE10deallocateERS1_PS0_m
0000000000000000  w    F .text._ZNSt12_Vector_baseIPiSaIS0_EE12_Vector_implC2Ev	000000000000003e _ZNSt12_Vector_baseIPiSaIS0_EE12_Vector_implC2Ev
0000000000000000  w    F .text._ZNSaIPiEC2Ev	000000000000001b _ZNSaIPiEC2Ev
0000000000000000  w    F .text._ZN9__gnu_cxx13new_allocatorIPiED2Ev	000000000000000b _ZN9__gnu_cxx13new_allocatorIPiED2Ev
0000000000000000  w    F .text._ZNSaIPiED2Ev	000000000000001b _ZNSaIPiED1Ev
0000000000000000  w    F .text._ZNSt16allocator_traitsISaIPiEE10deallocateERS1_PS0_m	000000000000002e _ZNSt16allocator_traitsISaIPiEE10deallocateERS1_PS0_m
0000000000000000  w    F .text._ZNSt12_Vector_baseIiSaIiEE12_Vector_implC2Ev	000000000000003e _ZNSt12_Vector_baseIiSaIiEE12_Vector_implC2Ev
0000000000000000  w    F .text._ZN9__gnu_cxx17__normal_iteratorIPPdSt6vectorIS1_SaIS1_EEEC2ERKS2_	000000000000001d _ZN9__gnu_cxx17__normal_iteratorIPPdSt6vectorIS1_SaIS1_EEEC2ERKS2_
0000000000000000  w    F .text._ZNKSt6vectorIPdSaIS0_EE8max_sizeEv	0000000000000022 _ZNKSt6vectorIPdSaIS0_EE8max_sizeEv
0000000000000000  w    F .text._ZNKSt6vectorIPdSaIS0_EE4sizeEv	0000000000000026 _ZNKSt6vectorIPdSaIS0_EE4sizeEv
0000000000000000  w    F .text._ZNSt16allocator_traitsISaIPdEE8allocateERS1_m	000000000000002a _ZNSt16allocator_traitsISaIPdEE8allocateERS1_m
0000000000000000  w    F .text._ZSt32__make_move_if_noexcept_iteratorIPdSt13move_iteratorIPS0_EET0_PT_	0000000000000048 _ZSt32__make_move_if_noexcept_iteratorIPdSt13move_iteratorIPS0_EET0_PT_
0000000000000000  w    F .text._ZNSt13move_iteratorIPPdEC2ES1_	000000000000001a _ZNSt13move_iteratorIPPdEC1ES1_
0000000000000000  w    F .text._ZSt22__uninitialized_copy_aISt13move_iteratorIPPdES2_S1_ET0_T_S5_S4_RSaIT1_E	0000000000000031 _ZSt22__uninitialized_copy_aISt13move_iteratorIPPdES2_S1_ET0_T_S5_S4_RSaIT1_E
0000000000000000  w    F .text._ZN9__gnu_cxx13new_allocatorIPdE7destroyIS1_EEvPT_	000000000000000f _ZN9__gnu_cxx13new_allocatorIPdE7destroyIS1_EEvPT_
0000000000000000  w    F .text._ZSt8_DestroyIPPdEvT_S2_	0000000000000026 _ZSt8_DestroyIPPdEvT_S2_
0000000000000000  w    F .text._ZN9__gnu_cxx17__normal_iteratorIPPiSt6vectorIS1_SaIS1_EEEC2ERKS2_	000000000000001d _ZN9__gnu_cxx17__normal_iteratorIPPiSt6vectorIS1_SaIS1_EEEC2ERKS2_
0000000000000000  w    F .text._ZNKSt6vectorIPiSaIS0_EE8max_sizeEv	0000000000000022 _ZNKSt6vectorIPiSaIS0_EE8max_sizeEv
0000000000000000  w    F .text._ZNKSt6vectorIPiSaIS0_EE4sizeEv	0000000000000026 _ZNKSt6vectorIPiSaIS0_EE4sizeEv
0000000000000000  w    F .text._ZNSt16allocator_traitsISaIPiEE8allocateERS1_m	000000000000002a _ZNSt16allocator_traitsISaIPiEE8allocateERS1_m
0000000000000000  w    F .text._ZSt32__make_move_if_noexcept_iteratorIPiSt13move_iteratorIPS0_EET0_PT_	0000000000000048 _ZSt32__make_move_if_noexcept_iteratorIPiSt13move_iteratorIPS0_EET0_PT_
0000000000000000  w    F .text._ZNSt13move_iteratorIPPiEC2ES1_	000000000000001a _ZNSt13move_iteratorIPPiEC1ES1_
0000000000000000  w    F .text._ZSt22__uninitialized_copy_aISt13move_iteratorIPPiES2_S1_ET0_T_S5_S4_RSaIT1_E	0000000000000031 _ZSt22__uninitialized_copy_aISt13move_iteratorIPPiES2_S1_ET0_T_S5_S4_RSaIT1_E
0000000000000000  w    F .text._ZN9__gnu_cxx13new_allocatorIPiE7destroyIS1_EEvPT_	000000000000000f _ZN9__gnu_cxx13new_allocatorIPiE7destroyIS1_EEvPT_
0000000000000000  w    F .text._ZSt8_DestroyIPPiEvT_S2_	0000000000000026 _ZSt8_DestroyIPPiEvT_S2_
0000000000000000  w    F .text._ZNSt12_Vector_baseIdSaIdEE12_Vector_implC2Ev	000000000000003e _ZNSt12_Vector_baseIdSaIdEE12_Vector_implC2Ev
0000000000000000  w    F .text._ZNSaIdEC2Ev	000000000000001b _ZNSaIdEC2Ev
0000000000000000  w    F .text._ZN9__gnu_cxx13new_allocatorIdED2Ev	000000000000000b _ZN9__gnu_cxx13new_allocatorIdED2Ev
0000000000000000  w    F .text._ZNSaIdED2Ev	000000000000001b _ZNSaIdED1Ev
0000000000000000  w    F .text._ZNSt16allocator_traitsISaIdEE10deallocateERS0_Pdm	000000000000002e _ZNSt16allocator_traitsISaIdEE10deallocateERS0_Pdm
0000000000000000  w    F .text._ZNSt12_Destroy_auxILb1EE9__destroyIPdEEvT_S3_	000000000000000f _ZNSt12_Destroy_auxILb1EE9__destroyIPdEEvT_S3_
0000000000000000  w    F .text._ZNSt12_Destroy_auxILb1EE9__destroyIPiEEvT_S3_	000000000000000f _ZNSt12_Destroy_auxILb1EE9__destroyIPiEEvT_S3_
0000000000000000  w    F .text._ZN9__gnu_cxx17__normal_iteratorIPiSt6vectorIiSaIiEEEC2ERKS1_	000000000000001d _ZN9__gnu_cxx17__normal_iteratorIPiSt6vectorIiSaIiEEEC2ERKS1_
0000000000000000  w    F .text._ZNKSt6vectorIiSaIiEE8max_sizeEv	0000000000000022 _ZNKSt6vectorIiSaIiEE8max_sizeEv
0000000000000000  w    F .text._ZSt32__make_move_if_noexcept_iteratorIiSt13move_iteratorIPiEET0_PT_	0000000000000048 _ZSt32__make_move_if_noexcept_iteratorIiSt13move_iteratorIPiEET0_PT_
0000000000000000  w    F .text._ZNSt13move_iteratorIPiEC2ES0_	000000000000001a _ZNSt13move_iteratorIPiEC1ES0_
0000000000000000  w    F .text._ZSt22__uninitialized_copy_aISt13move_iteratorIPiES1_iET0_T_S4_S3_RSaIT1_E	0000000000000031 _ZSt22__uninitialized_copy_aISt13move_iteratorIPiES1_iET0_T_S4_S3_RSaIT1_E
0000000000000000  w    F .text._ZN9__gnu_cxx13new_allocatorIiE7destroyIiEEvPT_	000000000000000f _ZN9__gnu_cxx13new_allocatorIiE7destroyIiEEvPT_
0000000000000000  w    F .text._ZN9__gnu_cxx13new_allocatorIPiE9constructIS1_JS1_EEEvPT_DpOT0_	0000000000000040 _ZN9__gnu_cxx13new_allocatorIPiE9constructIS1_JS1_EEEvPT_DpOT0_
0000000000000000  w    F .text._ZNK9__gnu_cxx17__normal_iteratorIPPiSt6vectorIS1_SaIS1_EEEmiEl	0000000000000065 _ZNK9__gnu_cxx17__normal_iteratorIPPiSt6vectorIS1_SaIS1_EEEmiEl
0000000000000000  w    F .text._ZNK9__gnu_cxx17__normal_iteratorIPPiSt6vectorIS1_SaIS1_EEEdeEv	0000000000000011 _ZNK9__gnu_cxx17__normal_iteratorIPPiSt6vectorIS1_SaIS1_EEEdeEv
0000000000000000  w    F .text._ZN9__gnu_cxx13new_allocatorIiE9constructIiJiEEEvPT_DpOT0_	000000000000003e _ZN9__gnu_cxx13new_allocatorIiE9constructIiJiEEEvPT_DpOT0_
0000000000000000  w    F .text._ZNK9__gnu_cxx17__normal_iteratorIPiSt6vectorIiSaIiEEEmiEl	0000000000000065 _ZNK9__gnu_cxx17__normal_iteratorIPiSt6vectorIiSaIiEEEmiEl
0000000000000000  w    F .text._ZNK9__gnu_cxx17__normal_iteratorIPiSt6vectorIiSaIiEEEdeEv	0000000000000011 _ZNK9__gnu_cxx17__normal_iteratorIPiSt6vectorIiSaIiEEEdeEv
0000000000000000  w    F .text._ZN9__gnu_cxx17__normal_iteratorIPcNSt7__cxx1112basic_stringIcSt11char_traitsIcESaIcEEEEC2ERKS1_	000000000000001d _ZN9__gnu_cxx17__normal_iteratorIPcNSt7__cxx1112basic_stringIcSt11char_traitsIcESaIcEEEEC1ERKS1_
0000000000000000  w    F .text._ZNK9__gnu_cxx17__normal_iteratorIPcNSt7__cxx1112basic_stringIcSt11char_traitsIcESaIcEEEE4baseEv	000000000000000e _ZNK9__gnu_cxx17__normal_iteratorIPcNSt7__cxx1112basic_stringIcSt11char_traitsIcESaIcEEEE4baseEv
0000000000000000  w    F .text._ZN9__gnu_cxx17__normal_iteratorIPdSt6vectorIdSaIdEEEC2ERKS1_	000000000000001d _ZN9__gnu_cxx17__normal_iteratorIPdSt6vectorIdSaIdEEEC2ERKS1_
0000000000000000  w    F .text._ZNKSt6vectorIdSaIdEE8max_sizeEv	0000000000000022 _ZNKSt6vectorIdSaIdEE8max_sizeEv
0000000000000000  w    F .text._ZNSt16allocator_traitsISaIdEE8allocateERS0_m	000000000000002a _ZNSt16allocator_traitsISaIdEE8allocateERS0_m
0000000000000000  w    F .text._ZSt32__make_move_if_noexcept_iteratorIdSt13move_iteratorIPdEET0_PT_	0000000000000048 _ZSt32__make_move_if_noexcept_iteratorIdSt13move_iteratorIPdEET0_PT_
0000000000000000  w    F .text._ZNSt13move_iteratorIPdEC2ES0_	000000000000001a _ZNSt13move_iteratorIPdEC1ES0_
0000000000000000  w    F .text._ZSt22__uninitialized_copy_aISt13move_iteratorIPdES1_dET0_T_S4_S3_RSaIT1_E	0000000000000031 _ZSt22__uninitialized_copy_aISt13move_iteratorIPdES1_dET0_T_S4_S3_RSaIT1_E
0000000000000000  w    F .text._ZN9__gnu_cxx13new_allocatorIdE7destroyIdEEvPT_	000000000000000f _ZN9__gnu_cxx13new_allocatorIdE7destroyIdEEvPT_
0000000000000000  w    F .text._ZN9__gnu_cxx13new_allocatorIPdE9constructIS1_JS1_EEEvPT_DpOT0_	0000000000000040 _ZN9__gnu_cxx13new_allocatorIPdE9constructIS1_JS1_EEEvPT_DpOT0_
0000000000000000  w    F .text._ZNK9__gnu_cxx17__normal_iteratorIPPdSt6vectorIS1_SaIS1_EEEmiEl	0000000000000065 _ZNK9__gnu_cxx17__normal_iteratorIPPdSt6vectorIS1_SaIS1_EEEmiEl
0000000000000000  w    F .text._ZNK9__gnu_cxx17__normal_iteratorIPPdSt6vectorIS1_SaIS1_EEEdeEv	0000000000000011 _ZNK9__gnu_cxx17__normal_iteratorIPPdSt6vectorIS1_SaIS1_EEEdeEv
0000000000000000  w    F .text._ZSt11__addressofIcEPT_RS0_	000000000000000e _ZSt11__addressofIcEPT_RS0_
0000000000000000  w    F .text._ZSt19__iterator_categoryIPKcENSt15iterator_traitsIT_E17iterator_categoryERKS3_	000000000000000a _ZSt19__iterator_categoryIPKcENSt15iterator_traitsIT_E17iterator_categoryERKS3_
0000000000000000  w    F .text._ZSt8distanceIPKcENSt15iterator_traitsIT_E15difference_typeES3_S3_	000000000000003f _ZSt8distanceIPKcENSt15iterator_traitsIT_E15difference_typeES3_S3_
0000000000000000  w    F .text._ZSt10__distanceIPKcENSt15iterator_traitsIT_E15difference_typeES3_S3_St26random_access_iterator_tag	000000000000001c _ZSt10__distanceIPKcENSt15iterator_traitsIT_E15difference_typeES3_S3_St26random_access_iterator_tag
0000000000000000  w    F .text._ZN9__gnu_cxx17__is_null_pointerIKcEEbPT_	0000000000000012 _ZN9__gnu_cxx17__is_null_pointerIKcEEbPT_
0000000000000000         *UND*	0000000000000000 _ZSt19__throw_logic_errorPKc
0000000000000000  w    F .text._ZNSt7__cxx1112basic_stringIcSt11char_traitsIcESaIcEE13_S_copy_charsEPcPKcS7_	000000000000003b _ZNSt7__cxx1112basic_stringIcSt11char_traitsIcESaIcEE13_S_copy_charsEPcPKcS7_
0000000000000000  w    F .text._ZSt11__addressofINSt12experimental10filesystem2v17__cxx114path5_CmptEEPT_RS6_	000000000000000e _ZSt11__addressofINSt12experimental10filesystem2v17__cxx114path5_CmptEEPT_RS6_
0000000000000000  w    F .text._ZSt8_DestroyINSt12experimental10filesystem2v17__cxx114path5_CmptEEvPT_	000000000000001b _ZSt8_DestroyINSt12experimental10filesystem2v17__cxx114path5_CmptEEvPT_
0000000000000000  w    F .text._ZN9__gnu_cxx13new_allocatorINSt12experimental10filesystem2v17__cxx114path5_CmptEEC2Ev	000000000000000b _ZN9__gnu_cxx13new_allocatorINSt12experimental10filesystem2v17__cxx114path5_CmptEEC2Ev
0000000000000000  w    F .text._ZNSaINSt12experimental10filesystem2v17__cxx114path5_CmptEEC2Ev	000000000000001b _ZNSaINSt12experimental10filesystem2v17__cxx114path5_CmptEEC1Ev
0000000000000000  w    F .text._ZSt9addressofIKcEPT_RS1_	000000000000001a _ZSt9addressofIKcEPT_RS1_
0000000000000000  w    F .text._ZSt19__iterator_categoryIPcENSt15iterator_traitsIT_E17iterator_categoryERKS2_	000000000000000a _ZSt19__iterator_categoryIPcENSt15iterator_traitsIT_E17iterator_categoryERKS2_
0000000000000000  w    F .text._ZSt8distanceIPcENSt15iterator_traitsIT_E15difference_typeES2_S2_	000000000000003f _ZSt8distanceIPcENSt15iterator_traitsIT_E15difference_typeES2_S2_
0000000000000000  w    F .text._ZSt10__distanceIPcENSt15iterator_traitsIT_E15difference_typeES2_S2_St26random_access_iterator_tag	000000000000001c _ZSt10__distanceIPcENSt15iterator_traitsIT_E15difference_typeES2_S2_St26random_access_iterator_tag
0000000000000000  w    F .text._ZN9__gnu_cxx17__is_null_pointerIcEEbPT_	0000000000000012 _ZN9__gnu_cxx17__is_null_pointerIcEEbPT_
0000000000000000  w    F .text._ZNSt7__cxx1112basic_stringIcSt11char_traitsIcESaIcEE13_S_copy_charsEPcS5_S5_	000000000000003b _ZNSt7__cxx1112basic_stringIcSt11char_traitsIcESaIcEE13_S_copy_charsEPcS5_S5_
0000000000000000         *UND*	0000000000000000 _ZdlPv
0000000000000000  w    F .text._ZNSt7__cxx1112basic_stringIcSt11char_traitsIcESaIcEE12_M_constructIN9__gnu_cxx17__normal_iteratorIPKcS4_EEEEvT_SB_St20forward_iterator_tag	0000000000000110 _ZNSt7__cxx1112basic_stringIcSt11char_traitsIcESaIcEE12_M_constructIN9__gnu_cxx17__normal_iteratorIPKcS4_EEEEvT_SB_St20forward_iterator_tag
0000000000000000  w    F .text._ZN9__gnu_cxx13new_allocatorINSt7__cxx1112basic_stringIcSt11char_traitsIcESaIcEEEEC2ERKS7_	000000000000000f _ZN9__gnu_cxx13new_allocatorINSt7__cxx1112basic_stringIcSt11char_traitsIcESaIcEEEEC2ERKS7_
0000000000000000  w    F .text._ZNSaINSt7__cxx1112basic_stringIcSt11char_traitsIcESaIcEEEEC2ERKS5_	0000000000000026 _ZNSaINSt7__cxx1112basic_stringIcSt11char_traitsIcESaIcEEEEC1ERKS5_
0000000000000000  w    F .text._ZN9__gnu_cxx13new_allocatorINSt7__cxx1112basic_stringIcSt11char_traitsIcESaIcEEEE10deallocateEPS6_m	0000000000000022 _ZN9__gnu_cxx13new_allocatorINSt7__cxx1112basic_stringIcSt11char_traitsIcESaIcEEEE10deallocateEPS6_m
0000000000000000  w    F .text._ZN9__gnu_cxx13new_allocatorINSt7__cxx1112basic_stringIcSt11char_traitsIcESaIcEEEE8allocateEmPKv	0000000000000042 _ZN9__gnu_cxx13new_allocatorINSt7__cxx1112basic_stringIcSt11char_traitsIcESaIcEEEE8allocateEmPKv
0000000000000000  w    F .text._ZNSt20__uninitialized_copyILb0EE13__uninit_copyIPKNSt7__cxx1112basic_stringIcSt11char_traitsIcESaIcEEEPS7_EET0_T_SC_SB_	0000000000000091 _ZNSt20__uninitialized_copyILb0EE13__uninit_copyIPKNSt7__cxx1112basic_stringIcSt11char_traitsIcESaIcEEEPS7_EET0_T_SC_SB_
0000000000000000  w    F .text._ZSt11__addressofINSt7__cxx1112basic_stringIcSt11char_traitsIcESaIcEEEEPT_RS6_	000000000000000e _ZSt11__addressofINSt7__cxx1112basic_stringIcSt11char_traitsIcESaIcEEEEPT_RS6_
0000000000000000  w    F .text._ZSt8_DestroyINSt7__cxx1112basic_stringIcSt11char_traitsIcESaIcEEEEvPT_	000000000000001b _ZSt8_DestroyINSt7__cxx1112basic_stringIcSt11char_traitsIcESaIcEEEEvPT_
0000000000000000  w    F .text._ZN9__gnu_cxx13new_allocatorIiEC2ERKS1_	000000000000000f _ZN9__gnu_cxx13new_allocatorIiEC2ERKS1_
0000000000000000  w    F .text._ZNSaIiEC2ERKS_	0000000000000026 _ZNSaIiEC1ERKS_
0000000000000000  w    F .text._ZN9__gnu_cxx13new_allocatorIiE10deallocateEPim	0000000000000022 _ZN9__gnu_cxx13new_allocatorIiE10deallocateEPim
0000000000000000  w    F .text._ZN9__gnu_cxx13new_allocatorIiE8allocateEmPKv	0000000000000042 _ZN9__gnu_cxx13new_allocatorIiE8allocateEmPKv
0000000000000000  w    F .text._ZNSt20__uninitialized_copyILb1EE13__uninit_copyIPKiPiEET0_T_S6_S5_	000000000000002d _ZNSt20__uninitialized_copyILb1EE13__uninit_copyIPKiPiEET0_T_S6_S5_
0000000000000000  w    F .text._ZN9__gnu_cxx13new_allocatorIPdEC2Ev	000000000000000b _ZN9__gnu_cxx13new_allocatorIPdEC2Ev
0000000000000000  w    F .text._ZNSaIPdEC2Ev	000000000000001b _ZNSaIPdEC1Ev
0000000000000000  w    F .text._ZN9__gnu_cxx13new_allocatorIPdED2Ev	000000000000000b _ZN9__gnu_cxx13new_allocatorIPdED1Ev
0000000000000000  w    F .text._ZN9__gnu_cxx13new_allocatorIPdE10deallocateEPS1_m	0000000000000022 _ZN9__gnu_cxx13new_allocatorIPdE10deallocateEPS1_m
0000000000000000  w    F .text._ZN9__gnu_cxx13new_allocatorIPiEC2Ev	000000000000000b _ZN9__gnu_cxx13new_allocatorIPiEC2Ev
0000000000000000  w    F .text._ZNSaIPiEC2Ev	000000000000001b _ZNSaIPiEC1Ev
0000000000000000  w    F .text._ZN9__gnu_cxx13new_allocatorIPiED2Ev	000000000000000b _ZN9__gnu_cxx13new_allocatorIPiED1Ev
0000000000000000  w    F .text._ZN9__gnu_cxx13new_allocatorIPiE10deallocateEPS1_m	0000000000000022 _ZN9__gnu_cxx13new_allocatorIPiE10deallocateEPS1_m
0000000000000000  w    F .text._ZNKSt12_Vector_baseIPdSaIS0_EE19_M_get_Tp_allocatorEv	000000000000000e _ZNKSt12_Vector_baseIPdSaIS0_EE19_M_get_Tp_allocatorEv
0000000000000000  w    F .text._ZNSt16allocator_traitsISaIPdEE8max_sizeERKS1_	000000000000001a _ZNSt16allocator_traitsISaIPdEE8max_sizeERKS1_
0000000000000000  w    F .text._ZN9__gnu_cxx13new_allocatorIPdE8allocateEmPKv	0000000000000042 _ZN9__gnu_cxx13new_allocatorIPdE8allocateEmPKv
0000000000000000  w    F .text._ZNSt13move_iteratorIPPdEC2ES1_	000000000000001a _ZNSt13move_iteratorIPPdEC2ES1_
0000000000000000  w    F .text._ZSt18uninitialized_copyISt13move_iteratorIPPdES2_ET0_T_S5_S4_	0000000000000031 _ZSt18uninitialized_copyISt13move_iteratorIPPdES2_ET0_T_S5_S4_
0000000000000000  w    F .text._ZNSt12_Destroy_auxILb1EE9__destroyIPPdEEvT_S4_	000000000000000f _ZNSt12_Destroy_auxILb1EE9__destroyIPPdEEvT_S4_
0000000000000000  w    F .text._ZNKSt12_Vector_baseIPiSaIS0_EE19_M_get_Tp_allocatorEv	000000000000000e _ZNKSt12_Vector_baseIPiSaIS0_EE19_M_get_Tp_allocatorEv
0000000000000000  w    F .text._ZNSt16allocator_traitsISaIPiEE8max_sizeERKS1_	000000000000001a _ZNSt16allocator_traitsISaIPiEE8max_sizeERKS1_
0000000000000000  w    F .text._ZN9__gnu_cxx13new_allocatorIPiE8allocateEmPKv	0000000000000042 _ZN9__gnu_cxx13new_allocatorIPiE8allocateEmPKv
0000000000000000  w    F .text._ZNSt13move_iteratorIPPiEC2ES1_	000000000000001a _ZNSt13move_iteratorIPPiEC2ES1_
0000000000000000  w    F .text._ZSt18uninitialized_copyISt13move_iteratorIPPiES2_ET0_T_S5_S4_	0000000000000031 _ZSt18uninitialized_copyISt13move_iteratorIPPiES2_ET0_T_S5_S4_
0000000000000000  w    F .text._ZNSt12_Destroy_auxILb1EE9__destroyIPPiEEvT_S4_	000000000000000f _ZNSt12_Destroy_auxILb1EE9__destroyIPPiEEvT_S4_
0000000000000000  w    F .text._ZN9__gnu_cxx13new_allocatorIdEC2Ev	000000000000000b _ZN9__gnu_cxx13new_allocatorIdEC2Ev
0000000000000000  w    F .text._ZNSaIdEC2Ev	000000000000001b _ZNSaIdEC1Ev
0000000000000000  w    F .text._ZN9__gnu_cxx13new_allocatorIdED2Ev	000000000000000b _ZN9__gnu_cxx13new_allocatorIdED1Ev
0000000000000000  w    F .text._ZN9__gnu_cxx13new_allocatorIdE10deallocateEPdm	0000000000000022 _ZN9__gnu_cxx13new_allocatorIdE10deallocateEPdm
0000000000000000  w    F .text._ZNKSt12_Vector_baseIiSaIiEE19_M_get_Tp_allocatorEv	000000000000000e _ZNKSt12_Vector_baseIiSaIiEE19_M_get_Tp_allocatorEv
0000000000000000  w    F .text._ZNSt16allocator_traitsISaIiEE8max_sizeERKS0_	000000000000001a _ZNSt16allocator_traitsISaIiEE8max_sizeERKS0_
0000000000000000  w    F .text._ZNSt13move_iteratorIPiEC2ES0_	000000000000001a _ZNSt13move_iteratorIPiEC2ES0_
0000000000000000  w    F .text._ZSt18uninitialized_copyISt13move_iteratorIPiES1_ET0_T_S4_S3_	0000000000000031 _ZSt18uninitialized_copyISt13move_iteratorIPiES1_ET0_T_S4_S3_
0000000000000000  w    F .text._ZN9__gnu_cxx17__normal_iteratorIPcNSt7__cxx1112basic_stringIcSt11char_traitsIcESaIcEEEEC2ERKS1_	000000000000001d _ZN9__gnu_cxx17__normal_iteratorIPcNSt7__cxx1112basic_stringIcSt11char_traitsIcESaIcEEEEC2ERKS1_
0000000000000000  w    F .text._ZNKSt12_Vector_baseIdSaIdEE19_M_get_Tp_allocatorEv	000000000000000e _ZNKSt12_Vector_baseIdSaIdEE19_M_get_Tp_allocatorEv
0000000000000000  w    F .text._ZNSt16allocator_traitsISaIdEE8max_sizeERKS0_	000000000000001a _ZNSt16allocator_traitsISaIdEE8max_sizeERKS0_
0000000000000000  w    F .text._ZN9__gnu_cxx13new_allocatorIdE8allocateEmPKv	0000000000000042 _ZN9__gnu_cxx13new_allocatorIdE8allocateEmPKv
0000000000000000  w    F .text._ZNSt13move_iteratorIPdEC2ES0_	000000000000001a _ZNSt13move_iteratorIPdEC2ES0_
0000000000000000  w    F .text._ZSt18uninitialized_copyISt13move_iteratorIPdES1_ET0_T_S4_S3_	0000000000000031 _ZSt18uninitialized_copyISt13move_iteratorIPdES1_ET0_T_S4_S3_
0000000000000000  w    F .text._ZNSt12experimental10filesystem2v17__cxx114path5_CmptD2Ev	000000000000001b _ZNSt12experimental10filesystem2v17__cxx114path5_CmptD2Ev
0000000000000000  w    F .text._ZNSt12experimental10filesystem2v17__cxx114path5_CmptD2Ev	000000000000001b _ZNSt12experimental10filesystem2v17__cxx114path5_CmptD1Ev
0000000000000000  w    F .text._ZN9__gnu_cxx13new_allocatorINSt12experimental10filesystem2v17__cxx114path5_CmptEEC2Ev	000000000000000b _ZN9__gnu_cxx13new_allocatorINSt12experimental10filesystem2v17__cxx114path5_CmptEEC1Ev
0000000000000000  w    F .text._ZSt11__addressofIKcEPT_RS1_	000000000000000e _ZSt11__addressofIKcEPT_RS1_
0000000000000000  w    F .text._ZSt19__iterator_categoryIN9__gnu_cxx17__normal_iteratorIPKcNSt7__cxx1112basic_stringIcSt11char_traitsIcESaIcEEEEEENSt15iterator_traitsIT_E17iterator_categoryERKSC_	000000000000000a _ZSt19__iterator_categoryIN9__gnu_cxx17__normal_iteratorIPKcNSt7__cxx1112basic_stringIcSt11char_traitsIcESaIcEEEEEENSt15iterator_traitsIT_E17iterator_categoryERKSC_
0000000000000000  w    F .text._ZSt8distanceIN9__gnu_cxx17__normal_iteratorIPKcNSt7__cxx1112basic_stringIcSt11char_traitsIcESaIcEEEEEENSt15iterator_traitsIT_E15difference_typeESC_SC_	000000000000003f _ZSt8distanceIN9__gnu_cxx17__normal_iteratorIPKcNSt7__cxx1112basic_stringIcSt11char_traitsIcESaIcEEEEEENSt15iterator_traitsIT_E15difference_typeESC_SC_
0000000000000000  w    F .text._ZSt10__distanceIN9__gnu_cxx17__normal_iteratorIPKcNSt7__cxx1112basic_stringIcSt11char_traitsIcESaIcEEEEEENSt15iterator_traitsIT_E15difference_typeESC_SC_St26random_access_iterator_tag	0000000000000025 _ZSt10__distanceIN9__gnu_cxx17__normal_iteratorIPKcNSt7__cxx1112basic_stringIcSt11char_traitsIcESaIcEEEEEENSt15iterator_traitsIT_E15difference_typeESC_SC_St26random_access_iterator_tag
0000000000000000  w    F .text._ZN9__gnu_cxx17__is_null_pointerINS_17__normal_iteratorIPKcNSt7__cxx1112basic_stringIcSt11char_traitsIcESaIcEEEEEEEbT_	000000000000000f _ZN9__gnu_cxx17__is_null_pointerINS_17__normal_iteratorIPKcNSt7__cxx1112basic_stringIcSt11char_traitsIcESaIcEEEEEEEbT_
0000000000000000  w    F .text._ZN9__gnu_cxxneIPKcNSt7__cxx1112basic_stringIcSt11char_traitsIcESaIcEEEEEbRKNS_17__normal_iteratorIT_T0_EESE_	000000000000003c _ZN9__gnu_cxxneIPKcNSt7__cxx1112basic_stringIcSt11char_traitsIcESaIcEEEEEbRKNS_17__normal_iteratorIT_T0_EESE_
0000000000000000  w    F .text._ZNSt7__cxx1112basic_stringIcSt11char_traitsIcESaIcEE13_S_copy_charsEPcN9__gnu_cxx17__normal_iteratorIPKcS4_EESA_	000000000000004d _ZNSt7__cxx1112basic_stringIcSt11char_traitsIcESaIcEE13_S_copy_charsEPcN9__gnu_cxx17__normal_iteratorIPKcS4_EESA_
0000000000000000  w    F .text._ZN9__gnu_cxx13new_allocatorINSt7__cxx1112basic_stringIcSt11char_traitsIcESaIcEEEEC2ERKS7_	000000000000000f _ZN9__gnu_cxx13new_allocatorINSt7__cxx1112basic_stringIcSt11char_traitsIcESaIcEEEEC1ERKS7_
0000000000000000  w    F .text._ZNK9__gnu_cxx13new_allocatorINSt7__cxx1112basic_stringIcSt11char_traitsIcESaIcEEEE8max_sizeEv	0000000000000014 _ZNK9__gnu_cxx13new_allocatorINSt7__cxx1112basic_stringIcSt11char_traitsIcESaIcEEEE8max_sizeEv
0000000000000000  w    F .text._ZSt10_ConstructINSt7__cxx1112basic_stringIcSt11char_traitsIcESaIcEEEJRKS5_EEvPT_DpOT0_	0000000000000069 _ZSt10_ConstructINSt7__cxx1112basic_stringIcSt11char_traitsIcESaIcEEEJRKS5_EEvPT_DpOT0_
0000000000000000  w    F .text._ZN9__gnu_cxx13new_allocatorIiEC2ERKS1_	000000000000000f _ZN9__gnu_cxx13new_allocatorIiEC1ERKS1_
0000000000000000  w    F .text._ZNK9__gnu_cxx13new_allocatorIiE8max_sizeEv	0000000000000014 _ZNK9__gnu_cxx13new_allocatorIiE8max_sizeEv
0000000000000000  w    F .text._ZSt4copyIPKiPiET0_T_S4_S3_	000000000000004c _ZSt4copyIPKiPiET0_T_S4_S3_
0000000000000000  w    F .text._ZN9__gnu_cxx13new_allocatorIPdEC2Ev	000000000000000b _ZN9__gnu_cxx13new_allocatorIPdEC1Ev
0000000000000000  w    F .text._ZN9__gnu_cxx13new_allocatorIPiEC2Ev	000000000000000b _ZN9__gnu_cxx13new_allocatorIPiEC1Ev
0000000000000000  w    F .text._ZNK9__gnu_cxx13new_allocatorIPdE8max_sizeEv	0000000000000014 _ZNK9__gnu_cxx13new_allocatorIPdE8max_sizeEv
0000000000000000  w    F .text._ZNSt20__uninitialized_copyILb1EE13__uninit_copyISt13move_iteratorIPPdES4_EET0_T_S7_S6_	000000000000002d _ZNSt20__uninitialized_copyILb1EE13__uninit_copyISt13move_iteratorIPPdES4_EET0_T_S7_S6_
0000000000000000  w    F .text._ZNK9__gnu_cxx13new_allocatorIPiE8max_sizeEv	0000000000000014 _ZNK9__gnu_cxx13new_allocatorIPiE8max_sizeEv
0000000000000000  w    F .text._ZNSt20__uninitialized_copyILb1EE13__uninit_copyISt13move_iteratorIPPiES4_EET0_T_S7_S6_	000000000000002d _ZNSt20__uninitialized_copyILb1EE13__uninit_copyISt13move_iteratorIPPiES4_EET0_T_S7_S6_
0000000000000000  w    F .text._ZN9__gnu_cxx13new_allocatorIdEC2Ev	000000000000000b _ZN9__gnu_cxx13new_allocatorIdEC1Ev
0000000000000000  w    F .text._ZNSt20__uninitialized_copyILb1EE13__uninit_copyISt13move_iteratorIPiES3_EET0_T_S6_S5_	000000000000002d _ZNSt20__uninitialized_copyILb1EE13__uninit_copyISt13move_iteratorIPiES3_EET0_T_S6_S5_
0000000000000000  w    F .text._ZNK9__gnu_cxx13new_allocatorIdE8max_sizeEv	0000000000000014 _ZNK9__gnu_cxx13new_allocatorIdE8max_sizeEv
0000000000000000  w    F .text._ZNSt20__uninitialized_copyILb1EE13__uninit_copyISt13move_iteratorIPdES3_EET0_T_S6_S5_	000000000000002d _ZNSt20__uninitialized_copyILb1EE13__uninit_copyISt13move_iteratorIPdES3_EET0_T_S6_S5_
0000000000000000  w    F .text._ZNK9__gnu_cxx17__normal_iteratorIPKcNSt7__cxx1112basic_stringIcSt11char_traitsIcESaIcEEEE4baseEv	000000000000000e _ZNK9__gnu_cxx17__normal_iteratorIPKcNSt7__cxx1112basic_stringIcSt11char_traitsIcESaIcEEEE4baseEv
0000000000000000  w    F .text._ZN9__gnu_cxxmiIPKcNSt7__cxx1112basic_stringIcSt11char_traitsIcESaIcEEEEENS_17__normal_iteratorIT_T0_E15difference_typeERKSC_SF_	000000000000003f _ZN9__gnu_cxxmiIPKcNSt7__cxx1112basic_stringIcSt11char_traitsIcESaIcEEEEENS_17__normal_iteratorIT_T0_E15difference_typeERKSC_SF_
0000000000000000  w    F .text._ZSt7forwardIRKNSt7__cxx1112basic_stringIcSt11char_traitsIcESaIcEEEEOT_RNSt16remove_referenceIS8_E4typeE	000000000000000e _ZSt7forwardIRKNSt7__cxx1112basic_stringIcSt11char_traitsIcESaIcEEEEOT_RNSt16remove_referenceIS8_E4typeE
0000000000000000  w    F .text._ZSt12__miter_baseIPKiET_S2_	000000000000000e _ZSt12__miter_baseIPKiET_S2_
0000000000000000  w    F .text._ZSt14__copy_move_a2ILb0EPKiPiET1_T0_S4_S3_	0000000000000058 _ZSt14__copy_move_a2ILb0EPKiPiET1_T0_S4_S3_
0000000000000000  w    F .text._ZSt4copyISt13move_iteratorIPPdES2_ET0_T_S5_S4_	000000000000004c _ZSt4copyISt13move_iteratorIPPdES2_ET0_T_S5_S4_
0000000000000000  w    F .text._ZSt4copyISt13move_iteratorIPPiES2_ET0_T_S5_S4_	000000000000004c _ZSt4copyISt13move_iteratorIPPiES2_ET0_T_S5_S4_
0000000000000000  w    F .text._ZSt4copyISt13move_iteratorIPiES1_ET0_T_S4_S3_	000000000000004c _ZSt4copyISt13move_iteratorIPiES1_ET0_T_S4_S3_
0000000000000000  w    F .text._ZSt4copyISt13move_iteratorIPdES1_ET0_T_S4_S3_	000000000000004c _ZSt4copyISt13move_iteratorIPdES1_ET0_T_S4_S3_
0000000000000000  w    F .text._ZSt12__niter_baseIPiET_S1_	000000000000000e _ZSt12__niter_baseIPiET_S1_
0000000000000000  w    F .text._ZSt12__niter_baseIPKiET_S2_	000000000000000e _ZSt12__niter_baseIPKiET_S2_
0000000000000000  w    F .text._ZSt13__copy_move_aILb0EPKiPiET1_T0_S4_S3_	0000000000000031 _ZSt13__copy_move_aILb0EPKiPiET1_T0_S4_S3_
0000000000000000  w    F .text._ZNKSt13move_iteratorIPPdE4baseEv	0000000000000011 _ZNKSt13move_iteratorIPPdE4baseEv
0000000000000000  w    F .text._ZSt12__miter_baseIPPdEDTcl12__miter_basecldtfp_4baseEEESt13move_iteratorIT_E	0000000000000022 _ZSt12__miter_baseIPPdEDTcl12__miter_basecldtfp_4baseEEESt13move_iteratorIT_E
0000000000000000  w    F .text._ZSt14__copy_move_a2ILb1EPPdS1_ET1_T0_S3_S2_	0000000000000058 _ZSt14__copy_move_a2ILb1EPPdS1_ET1_T0_S3_S2_
0000000000000000  w    F .text._ZNKSt13move_iteratorIPPiE4baseEv	0000000000000011 _ZNKSt13move_iteratorIPPiE4baseEv
0000000000000000  w    F .text._ZSt12__miter_baseIPPiEDTcl12__miter_basecldtfp_4baseEEESt13move_iteratorIT_E	0000000000000022 _ZSt12__miter_baseIPPiEDTcl12__miter_basecldtfp_4baseEEESt13move_iteratorIT_E
0000000000000000  w    F .text._ZSt14__copy_move_a2ILb1EPPiS1_ET1_T0_S3_S2_	0000000000000058 _ZSt14__copy_move_a2ILb1EPPiS1_ET1_T0_S3_S2_
0000000000000000  w    F .text._ZNKSt13move_iteratorIPiE4baseEv	0000000000000011 _ZNKSt13move_iteratorIPiE4baseEv
0000000000000000  w    F .text._ZSt12__miter_baseIPiEDTcl12__miter_basecldtfp_4baseEEESt13move_iteratorIT_E	0000000000000022 _ZSt12__miter_baseIPiEDTcl12__miter_basecldtfp_4baseEEESt13move_iteratorIT_E
0000000000000000  w    F .text._ZSt14__copy_move_a2ILb1EPiS0_ET1_T0_S2_S1_	0000000000000058 _ZSt14__copy_move_a2ILb1EPiS0_ET1_T0_S2_S1_
0000000000000000  w    F .text._ZNKSt13move_iteratorIPdE4baseEv	0000000000000011 _ZNKSt13move_iteratorIPdE4baseEv
0000000000000000  w    F .text._ZSt12__miter_baseIPdEDTcl12__miter_basecldtfp_4baseEEESt13move_iteratorIT_E	0000000000000022 _ZSt12__miter_baseIPdEDTcl12__miter_basecldtfp_4baseEEESt13move_iteratorIT_E
0000000000000000  w    F .text._ZSt14__copy_move_a2ILb1EPdS0_ET1_T0_S2_S1_	0000000000000058 _ZSt14__copy_move_a2ILb1EPdS0_ET1_T0_S2_S1_
0000000000000000  w    F .text._ZNSt11__copy_moveILb0ELb1ESt26random_access_iterator_tagE8__copy_mIiEEPT_PKS3_S6_S4_	0000000000000065 _ZNSt11__copy_moveILb0ELb1ESt26random_access_iterator_tagE8__copy_mIiEEPT_PKS3_S6_S4_
0000000000000000  w    F .text._ZSt12__miter_baseIPPdET_S2_	000000000000000e _ZSt12__miter_baseIPPdET_S2_
0000000000000000  w    F .text._ZSt12__niter_baseIPPdET_S2_	000000000000000e _ZSt12__niter_baseIPPdET_S2_
0000000000000000  w    F .text._ZSt13__copy_move_aILb1EPPdS1_ET1_T0_S3_S2_	0000000000000031 _ZSt13__copy_move_aILb1EPPdS1_ET1_T0_S3_S2_
0000000000000000  w    F .text._ZSt12__miter_baseIPPiET_S2_	000000000000000e _ZSt12__miter_baseIPPiET_S2_
0000000000000000  w    F .text._ZSt12__niter_baseIPPiET_S2_	000000000000000e _ZSt12__niter_baseIPPiET_S2_
0000000000000000  w    F .text._ZSt13__copy_move_aILb1EPPiS1_ET1_T0_S3_S2_	0000000000000031 _ZSt13__copy_move_aILb1EPPiS1_ET1_T0_S3_S2_
0000000000000000  w    F .text._ZSt12__miter_baseIPiET_S1_	000000000000000e _ZSt12__miter_baseIPiET_S1_
0000000000000000  w    F .text._ZSt13__copy_move_aILb1EPiS0_ET1_T0_S2_S1_	0000000000000031 _ZSt13__copy_move_aILb1EPiS0_ET1_T0_S2_S1_
0000000000000000  w    F .text._ZSt12__miter_baseIPdET_S1_	000000000000000e _ZSt12__miter_baseIPdET_S1_
0000000000000000  w    F .text._ZSt12__niter_baseIPdET_S1_	000000000000000e _ZSt12__niter_baseIPdET_S1_
0000000000000000  w    F .text._ZSt13__copy_move_aILb1EPdS0_ET1_T0_S2_S1_	0000000000000031 _ZSt13__copy_move_aILb1EPdS0_ET1_T0_S2_S1_
0000000000000000         *UND*	0000000000000000 memmove
0000000000000000  w    F .text._ZNSt11__copy_moveILb1ELb1ESt26random_access_iterator_tagE8__copy_mIPdEEPT_PKS4_S7_S5_	0000000000000065 _ZNSt11__copy_moveILb1ELb1ESt26random_access_iterator_tagE8__copy_mIPdEEPT_PKS4_S7_S5_
0000000000000000  w    F .text._ZNSt11__copy_moveILb1ELb1ESt26random_access_iterator_tagE8__copy_mIPiEEPT_PKS4_S7_S5_	0000000000000065 _ZNSt11__copy_moveILb1ELb1ESt26random_access_iterator_tagE8__copy_mIPiEEPT_PKS4_S7_S5_
0000000000000000  w    F .text._ZNSt11__copy_moveILb1ELb1ESt26random_access_iterator_tagE8__copy_mIiEEPT_PKS3_S6_S4_	0000000000000065 _ZNSt11__copy_moveILb1ELb1ESt26random_access_iterator_tagE8__copy_mIiEEPT_PKS3_S6_S4_
0000000000000000  w    F .text._ZNSt11__copy_moveILb1ELb1ESt26random_access_iterator_tagE8__copy_mIdEEPT_PKS3_S6_S4_	0000000000000065 _ZNSt11__copy_moveILb1ELb1ESt26random_access_iterator_tagE8__copy_mIdEEPT_PKS3_S6_S4_
0000000000000000  w    O .data.rel.ro._ZTIN3MPI3WinE	0000000000000010 _ZTIN3MPI3WinE
0000000000000000         *UND*	0000000000000000 _ZN3MPI3Win4FreeEv
0000000000000000  w    O .data.rel.ro._ZTIN3MPI4InfoE	0000000000000010 _ZTIN3MPI4InfoE
0000000000000000  w    O .data.rel.ro._ZTIN3MPI6StatusE	0000000000000010 _ZTIN3MPI6StatusE
0000000000000000  w    O .data.rel.ro._ZTIN3MPI10ErrhandlerE	0000000000000010 _ZTIN3MPI10ErrhandlerE
0000000000000000  w    O .data.rel.ro._ZTIN3MPI2OpE	0000000000000010 _ZTIN3MPI2OpE
0000000000000000  w    O .data.rel.ro._ZTIN3MPI5GroupE	0000000000000010 _ZTIN3MPI5GroupE
0000000000000000  w    O .data.rel.ro._ZTIN3MPI9IntercommE	0000000000000018 _ZTIN3MPI9IntercommE
0000000000000000  w    F .text._ZN3MPI9IntercommD2Ev	0000000000000029 _ZN3MPI9IntercommD1Ev
0000000000000000  w    F .text._ZN3MPI9IntercommD0Ev	000000000000002b _ZN3MPI9IntercommD0Ev
0000000000000000  w    F .text._ZN3MPI9IntercommD2Ev	0000000000000029 _ZN3MPI9IntercommD2Ev
0000000000000000  w    O .data.rel.ro._ZTIN3MPI9GraphcommE	0000000000000018 _ZTIN3MPI9GraphcommE
0000000000000000  w    F .text._ZN3MPI9GraphcommD2Ev	0000000000000029 _ZN3MPI9GraphcommD1Ev
0000000000000000  w    F .text._ZN3MPI9GraphcommD0Ev	000000000000002b _ZN3MPI9GraphcommD0Ev
0000000000000000  w    F .text._ZN3MPI9GraphcommD2Ev	0000000000000029 _ZN3MPI9GraphcommD2Ev
0000000000000000  w    O .data.rel.ro._ZTIN3MPI8CartcommE	0000000000000018 _ZTIN3MPI8CartcommE
0000000000000000  w    F .text._ZN3MPI8CartcommD2Ev	0000000000000029 _ZN3MPI8CartcommD1Ev
0000000000000000  w    F .text._ZN3MPI8CartcommD0Ev	000000000000002b _ZN3MPI8CartcommD0Ev
0000000000000000  w    F .text._ZN3MPI8CartcommD2Ev	0000000000000029 _ZN3MPI8CartcommD2Ev
0000000000000000  w    O .data.rel.ro._ZTIN3MPI9IntracommE	0000000000000018 _ZTIN3MPI9IntracommE
0000000000000000  w    O .data.rel.ro._ZTIN3MPI4CommE	0000000000000018 _ZTIN3MPI4CommE
0000000000000000         *UND*	0000000000000000 __cxa_pure_virtual
0000000000000000  w    O .data.rel.ro._ZTIN3MPI8GrequestE	0000000000000018 _ZTIN3MPI8GrequestE
0000000000000000  w    O .data.rel.ro._ZTIN3MPI8PrequestE	0000000000000018 _ZTIN3MPI8PrequestE
0000000000000000  w    O .data.rel.ro._ZTIN3MPI7RequestE	0000000000000010 _ZTIN3MPI7RequestE
0000000000000000  w    O .data.rel.ro._ZTIN3MPI8DatatypeE	0000000000000010 _ZTIN3MPI8DatatypeE
0000000000000000         *UND*	0000000000000000 _ZN3MPI8Datatype4FreeEv
0000000000000000  w    O .data.rel.ro._ZTIN3MPI9Comm_NullE	0000000000000010 _ZTIN3MPI9Comm_NullE
0000000000000000         *UND*	0000000000000000 _ZTVN10__cxxabiv117__class_type_infoE
0000000000000000  w    O .rodata._ZTSN3MPI4InfoE	000000000000000c _ZTSN3MPI4InfoE
0000000000000000         *UND*	0000000000000000 _ZTVN10__cxxabiv120__si_class_type_infoE
0000000000000000  w    O .rodata._ZTSN3MPI9IntercommE	0000000000000011 _ZTSN3MPI9IntercommE
0000000000000000  w    O .rodata._ZTSN3MPI9GraphcommE	0000000000000011 _ZTSN3MPI9GraphcommE
0000000000000000  w    O .rodata._ZTSN3MPI8CartcommE	0000000000000010 _ZTSN3MPI8CartcommE
0000000000000000  w    O .rodata._ZTSN3MPI9IntracommE	0000000000000011 _ZTSN3MPI9IntracommE
0000000000000000  w    O .rodata._ZTSN3MPI10ErrhandlerE	0000000000000013 _ZTSN3MPI10ErrhandlerE
0000000000000000  w    O .rodata._ZTSN3MPI3WinE	000000000000000b _ZTSN3MPI3WinE
0000000000000000  w    O .rodata._ZTSN3MPI4CommE	000000000000000c _ZTSN3MPI4CommE
0000000000000000  w    O .rodata._ZTSN3MPI9Comm_NullE	0000000000000011 _ZTSN3MPI9Comm_NullE
0000000000000000  w    O .rodata._ZTSN3MPI5GroupE	000000000000000d _ZTSN3MPI5GroupE
0000000000000000  w    O .rodata._ZTSN3MPI8GrequestE	0000000000000010 _ZTSN3MPI8GrequestE
0000000000000000  w    O .rodata._ZTSN3MPI8PrequestE	0000000000000010 _ZTSN3MPI8PrequestE
0000000000000000  w    O .rodata._ZTSN3MPI7RequestE	000000000000000f _ZTSN3MPI7RequestE
0000000000000000  w    O .rodata._ZTSN3MPI6StatusE	000000000000000e _ZTSN3MPI6StatusE
0000000000000000  w    O .rodata._ZTSN3MPI2OpE	000000000000000a _ZTSN3MPI2OpE
0000000000000000  w    O .rodata._ZTSN3MPI8DatatypeE	0000000000000010 _ZTSN3MPI8DatatypeE
0000000000000000         *UND*	0000000000000000 _ZNSt8ios_base4InitC1Ev
0000000000000000         *UND*	0000000000000000 .hidden __dso_handle
0000000000000000         *UND*	0000000000000000 _ZNSt8ios_base4InitD1Ev
0000000000000000         *UND*	0000000000000000 __cxa_atexit
0000000000000000  w    F .text._ZNSt6vectorIPdSaIS0_EED2Ev	0000000000000044 _ZNSt6vectorIPdSaIS0_EED1Ev
0000000000000000  w    F .text._ZNSt6vectorIPiSaIS0_EED2Ev	0000000000000044 _ZNSt6vectorIPiSaIS0_EED1Ev
0000000000000000  w    F .text._ZNSt6vectorIPdSaIS0_EED2Ev	0000000000000044 _ZNSt6vectorIPdSaIS0_EED2Ev
0000000000000000  w    F .text._ZNSt6vectorIPiSaIS0_EED2Ev	0000000000000044 _ZNSt6vectorIPiSaIS0_EED2Ev
0000000000000000  w      *UND*	0000000000000000 __pthread_key_create


